
tdp1/arcade_stick/app/out/app.elf:     file format elf32-littlearm
tdp1/arcade_stick/app/out/app.elf
architecture: armv7e-m, flags 0x00000112:
EXEC_P, HAS_SYMS, D_PAGED
start address 0x1a000641

Program Header:
0x70000001 off    0x0001348c vaddr 0x1a00348c paddr 0x1a00348c align 2**2
         filesz 0x00000008 memsz 0x00000008 flags r--
    LOAD off    0x00000000 vaddr 0x10000000 paddr 0x10000000 align 2**16
         filesz 0x000000b4 memsz 0x0000018c flags rw-
    LOAD off    0x00010000 vaddr 0x1a000000 paddr 0x1a000000 align 2**16
         filesz 0x00003494 memsz 0x00003494 flags rwx
    LOAD off    0x00020000 vaddr 0x10000000 paddr 0x1a003494 align 2**16
         filesz 0x000000f4 memsz 0x000000f4 flags rw-
private flags = 5000400: [Version5 EABI] [hard-float ABI]

Sections:
Idx Name          Size      VMA       LMA       File off  Algn
  0 .text         00003488  1a000000  1a000000  00010000  2**2
                  CONTENTS, ALLOC, LOAD, READONLY, CODE
  1 .data         000000f4  10000000  1a003494  00020000  2**3
                  CONTENTS, ALLOC, LOAD, DATA
  2 .data_RAM2    00000000  10080000  10080000  000200f4  2**2
                  CONTENTS
  3 .data_RAM3    00000000  20000000  20000000  000200f4  2**2
                  CONTENTS
  4 .data_RAM4    00000000  20008000  20008000  000200f4  2**2
                  CONTENTS
  5 .data_RAM5    00000000  2000c000  2000c000  000200f4  2**2
                  CONTENTS
  6 .bss          00000094  100000f8  100000f8  000000f8  2**3
                  ALLOC
  7 .bss_RAM2     00000000  10080000  10080000  000200f4  2**2
                  CONTENTS
  8 .bss_RAM3     00000000  20000000  20000000  000200f4  2**2
                  CONTENTS
  9 .bss_RAM4     00000000  20008000  20008000  000200f4  2**2
                  CONTENTS
 10 .bss_RAM5     00000000  2000c000  2000c000  000200f4  2**2
                  CONTENTS
 11 .init_array   00000004  1a003488  1a003488  00013488  2**2
                  CONTENTS, ALLOC, LOAD, DATA
 12 .ARM.exidx    00000008  1a00348c  1a00348c  0001348c  2**2
                  CONTENTS, ALLOC, LOAD, READONLY, DATA
 13 .uninit_RESERVED 00000000  10000000  10000000  000200f4  2**2
                  CONTENTS
 14 .noinit_RAM2  00000000  10080000  10080000  000200f4  2**2
                  CONTENTS
 15 .noinit_RAM3  00000000  20000000  20000000  000200f4  2**2
                  CONTENTS
 16 .noinit_RAM4  00000000  20008000  20008000  000200f4  2**2
                  CONTENTS
 17 .noinit_RAM5  00000000  2000c000  2000c000  000200f4  2**2
                  CONTENTS
 18 .noinit       00000000  1000018c  1000018c  000200f4  2**2
                  CONTENTS
 19 .debug_info   0002f41d  00000000  00000000  000200f4  2**0
                  CONTENTS, READONLY, DEBUGGING
 20 .debug_abbrev 00005dc6  00000000  00000000  0004f511  2**0
                  CONTENTS, READONLY, DEBUGGING
 21 .debug_loc    00008f94  00000000  00000000  000552d7  2**0
                  CONTENTS, READONLY, DEBUGGING
 22 .debug_aranges 00000b48  00000000  00000000  0005e26b  2**0
                  CONTENTS, READONLY, DEBUGGING
 23 .debug_ranges 00000b90  00000000  00000000  0005edb3  2**0
                  CONTENTS, READONLY, DEBUGGING
 24 .debug_macro  0000968f  00000000  00000000  0005f943  2**0
                  CONTENTS, READONLY, DEBUGGING
 25 .debug_line   00015581  00000000  00000000  00068fd2  2**0
                  CONTENTS, READONLY, DEBUGGING
 26 .debug_str    000288d2  00000000  00000000  0007e553  2**0
                  CONTENTS, READONLY, DEBUGGING
 27 .comment      00000068  00000000  00000000  000a6e25  2**0
                  CONTENTS, READONLY
 28 .ARM.attributes 00000032  00000000  00000000  000a6e8d  2**0
                  CONTENTS, READONLY
 29 .debug_frame  00001fbc  00000000  00000000  000a6ec0  2**2
                  CONTENTS, READONLY, DEBUGGING
SYMBOL TABLE:
1a000000 l    d  .text	00000000 .text
10000000 l    d  .data	00000000 .data
10080000 l    d  .data_RAM2	00000000 .data_RAM2
20000000 l    d  .data_RAM3	00000000 .data_RAM3
20008000 l    d  .data_RAM4	00000000 .data_RAM4
2000c000 l    d  .data_RAM5	00000000 .data_RAM5
100000f8 l    d  .bss	00000000 .bss
10080000 l    d  .bss_RAM2	00000000 .bss_RAM2
20000000 l    d  .bss_RAM3	00000000 .bss_RAM3
20008000 l    d  .bss_RAM4	00000000 .bss_RAM4
2000c000 l    d  .bss_RAM5	00000000 .bss_RAM5
1a003488 l    d  .init_array	00000000 .init_array
1a00348c l    d  .ARM.exidx	00000000 .ARM.exidx
10000000 l    d  .uninit_RESERVED	00000000 .uninit_RESERVED
10080000 l    d  .noinit_RAM2	00000000 .noinit_RAM2
20000000 l    d  .noinit_RAM3	00000000 .noinit_RAM3
20008000 l    d  .noinit_RAM4	00000000 .noinit_RAM4
2000c000 l    d  .noinit_RAM5	00000000 .noinit_RAM5
1000018c l    d  .noinit	00000000 .noinit
00000000 l    d  .debug_info	00000000 .debug_info
00000000 l    d  .debug_abbrev	00000000 .debug_abbrev
00000000 l    d  .debug_loc	00000000 .debug_loc
00000000 l    d  .debug_aranges	00000000 .debug_aranges
00000000 l    d  .debug_ranges	00000000 .debug_ranges
00000000 l    d  .debug_macro	00000000 .debug_macro
00000000 l    d  .debug_line	00000000 .debug_line
00000000 l    d  .debug_str	00000000 .debug_str
00000000 l    d  .comment	00000000 .comment
00000000 l    d  .ARM.attributes	00000000 .ARM.attributes
00000000 l    d  .debug_frame	00000000 .debug_frame
00000000 l    df *ABS*	00000000 armv7m_startup.c
00000000 l    df *ABS*	00000000 vendor_interrupt.c
00000000 l    df *ABS*	00000000 crp.c
00000000 l    df *ABS*	00000000 joystick.c
00000000 l    df *ABS*	00000000 app.c
100000f8 l     O .bss	00000001 FLAG_DOWN
100000f9 l     O .bss	00000001 FLAG_LEFT
100000fa l     O .bss	00000001 FLAG_RIGHT
100000fb l     O .bss	00000001 FLAG_UP
00000000 l    df *ABS*	00000000 usbd_gamepad.c
1a000484 l     F .text	00000014 Gamepad_EpIN_Hdlr
1a000498 l     F .text	0000000c Gamepad_SetReport
1a0004a4 l     F .text	00000024 Gamepad_UpdateReport
1a0004c8 l     F .text	00000048 Gamepad_GetReport
100000fc l     O .bss	00000010 g_gamePad
00000000 l    df *ABS*	00000000 gamepad_api.c
10000110 l     O .bss	00000001 aux_bitsPulsadores
00000000 l    df *ABS*	00000000 system.c
10000114 l     O .bss	00000004 heap_end.5864
00000000 l    df *ABS*	00000000 board_sysinit.c
1a0030d8 l     O .text	00000004 InitClkStates
1a0030dc l     O .text	00000074 pinmuxing
00000000 l    df *ABS*	00000000 board.c
1a000844 l     F .text	00000044 Board_LED_Init
1a000888 l     F .text	00000040 Board_TEC_Init
1a0008c8 l     F .text	00000040 Board_GPIO_Init
1a000908 l     F .text	00000030 Board_ADC_Init
1a000938 l     F .text	00000038 Board_SPI_Init
1a000970 l     F .text	00000024 Board_I2C_Init
1a003154 l     O .text	00000008 GpioButtons
1a00315c l     O .text	0000000c GpioLeds
1a003168 l     O .text	00000012 GpioPorts
00000000 l    df *ABS*	00000000 ssp_18xx_43xx.c
1a000a9c l     F .text	00000014 Chip_SSP_GetClockIndex
1a000ab0 l     F .text	00000018 Chip_SSP_GetPeriphClockIndex
00000000 l    df *ABS*	00000000 i2c_18xx_43xx.c
10000048 l     O .data	00000038 i2c
00000000 l    df *ABS*	00000000 gpio_18xx_43xx.c
00000000 l    df *ABS*	00000000 adc_18xx_43xx.c
1a000bd0 l     F .text	00000014 Chip_ADC_GetClockIndex
1a000be4 l     F .text	00000032 getClkDiv
00000000 l    df *ABS*	00000000 sysinit_18xx_43xx.c
1a003180 l     O .text	00000048 InitClkStates
00000000 l    df *ABS*	00000000 chip_18xx_43xx.c
1a000ef4 l     F .text	00000034 Chip_USB_PllSetup
1a0031c8 l     O .text	00000014 usbPLLSetup
00000000 l    df *ABS*	00000000 clock_18xx_43xx.c
1a000f70 l     F .text	000000a0 pll_calc_divs
1a001010 l     F .text	0000010c pll_get_frac
1a00111c l     F .text	0000004c Chip_Clock_FindBaseClock
1a001390 l     F .text	00000022 Chip_Clock_GetDivRate
10000118 l     O .bss	00000008 audio_usb_pll_freq
1a0031e8 l     O .text	0000006c periph_to_base
00000000 l    df *ABS*	00000000 uart_18xx_43xx.c
1a0015ac l     F .text	0000002c Chip_UART_GetIndex
1a003254 l     O .text	00000008 UART_BClock
1a00325c l     O .text	00000008 UART_PClock
00000000 l    df *ABS*	00000000 sysinit.c
00000000 l    df *ABS*	00000000 sapi_sleep.c
00000000 l    df *ABS*	00000000 sapi_cyclesCounter.c
10000080 l     O .data	00000004 ClockSpeed
00000000 l    df *ABS*	00000000 sapi_gpio.c
1a0017c8 l     F .text	00000034 gpioObtainPinInit
00000000 l    df *ABS*	00000000 sapi_adc.c
00000000 l    df *ABS*	00000000 sapi_tick.c
10000120 l     O .bss	00000004 callBackFuncParams
10000128 l     O .bss	00000008 tickCounter
10000130 l     O .bss	00000004 tickHookFunction
00000000 l    df *ABS*	00000000 sapi_uart.c
1a003354 l     O .text	00000048 lpcUarts
00000000 l    df *ABS*	00000000 cdc_uart.c
1a001cd4 l     F .text	00000084 CDC_ep0_override_hdlr
1a001d58 l     F .text	000000c0 UCOM_bulk_hdlr
1a001e18 l     F .text	00000090 UCOM_SetLineCode
10000134 l     O .bss	00000004 g_defaultCdcHdlr
10000138 l     O .bss	00000018 g_uCOM
00000000 l    df *ABS*	00000000 usbd_keyboard.c
1a001f84 l     F .text	00000014 Keyboard_EpIN_Hdlr
1a001f98 l     F .text	00000020 Keyboard_UpdateReport
1a001fb8 l     F .text	00000048 Keyboard_SetReport
1a002000 l     F .text	00000040 Keyboard_GetReport
10000150 l     O .bss	00000010 g_keyBoard
00000000 l    df *ABS*	00000000 sapi_usb_device.c
1a002114 l     F .text	00000010 usbDeviceLpcInterruptPrioritySet
1a002124 l     F .text	00000028 usbDeviceLpcInterruptInit
1a00214c l     F .text	00000098 usbDeviceLpcInit
10000164 l     O .bss	00000004 g_Ep0BaseHdlr
10000168 l     O .bss	00000004 g_ep0RxBusy
1000016c l     O .bss	00000004 g_hUsb
00000000 l    df *ABS*	00000000 sapi_board.c
00000000 l    df *ABS*	00000000 sapi_delay.c
00000000 l    df *ABS*	00000000 _aeabi_uldivmod.o
00000000 l    df *ABS*	00000000 libgcc2.c
00000000 l    df *ABS*	00000000 _dvmd_tls.o
00000000 l    df *ABS*	00000000 fflush.c
00000000 l    df *ABS*	00000000 findfp.c
1a00283c l     F .text	00000048 std
00000000 l    df *ABS*	00000000 fwalk.c
00000000 l    df *ABS*	00000000 init.c
00000000 l    df *ABS*	00000000 lock.c
00000000 l    df *ABS*	00000000 memset.c
00000000 l    df *ABS*	00000000 nano-mallocr.c
00000000 l    df *ABS*	00000000 nano-mallocr.c
00000000 l    df *ABS*	00000000 puts.c
00000000 l    df *ABS*	00000000 stdio.c
00000000 l    df *ABS*	00000000 wbuf.c
00000000 l    df *ABS*	00000000 wsetup.c
00000000 l    df *ABS*	00000000 makebuf.c
00000000 l    df *ABS*	00000000 mlock.c
00000000 l    df *ABS*	00000000 usbd_gamepad_hid_desc.c
00000000 l    df *ABS*	00000000 usbd_keyboard_hid_desc.c
00000000 l    df *ABS*	00000000 impure.c
10000094 l     O .data	00000060 impure_data
00000000 l    df *ABS*	00000000 
1a00348c l       .init_array	00000000 __init_array_end
1a003488 l       .bss_RAM5	00000000 __preinit_array_end
1a003488 l       .init_array	00000000 __init_array_start
1a003488 l       .bss_RAM5	00000000 __preinit_array_start
1a0011b4 g     F .text	0000001c Chip_Clock_GetDividerSource
1a0006e0 g     F .text	00000012 _isatty_r
1000010c g     O .bss	00000004 gamepadCheckFunction
1a002bd4 g     F .text	000000dc _puts_r
1a0001ba  w    F .text	00000002 TIMER2_IRQHandler
1a0006f2 g     F .text	0000000a _lseek_r
1a000184  w    F .text	00000002 DebugMon_Handler
1a0001ba  w    F .text	00000002 RIT_IRQHandler
1a000c7c g     F .text	00000016 Chip_ADC_DeInit
1a080000 g       *ABS*	00000000 __top_MFlashA512
1a0001ba  w    F .text	00000002 ADCHS_IRQHandler
1a000114 g       .text	00000000 __section_table_start
1a0001ba  w    F .text	00000002 FLASH_EEPROM_IRQHandler
1a0001ba  w    F .text	00000002 I2C0_IRQHandler
1a000a92 g     F .text	00000008 __stdio_init
10000180 g     O .bss	00000001 __lock___atexit_recursive_mutex
1a000f28 g     F .text	00000034 Chip_USB0_Init
1a002d1a g     F .text	00000024 __sseek
1a0028ec g     F .text	00000070 __sinit
1a002d48 g     F .text	000000a4 __swbuf_r
1a00017a  w    F .text	00000002 HardFault_Handler
1a002890 g     F .text	0000002c __sfmoreglue
1a000000 g       *ABS*	00000000 __vectors_start__
1a000d44 g     F .text	0000000c Chip_ADC_SetResolution
1a002f9c g     F .text	0000000c __malloc_unlock
1a001c2c g     F .text	0000002c SysTick_Handler
1a001654 g     F .text	00000040 Chip_UART_SetBaud
10000181 g     O .bss	00000001 __lock___arc4random_mutex
1a00063c  w    F .text	00000002 initialise_monitor_handles
1a0001ba  w    F .text	00000002 SDIO_IRQHandler
1a0009cc g     F .text	0000001c Board_UARTGetChar
1a0001ba  w    F .text	00000002 ATIMER_IRQHandler
1a000186  w    F .text	00000002 PendSV_Handler
1a000594 g     F .text	0000004c usbDeviceGamepadTasks
1a000178  w    F .text	00000002 NMI_Handler
1a003494 g       .ARM.exidx	00000000 __exidx_end
1a000150 g       .text	00000000 __data_section_table_end
1a0001ba  w    F .text	00000002 I2C1_IRQHandler
1a0001ba  w    F .text	00000002 UART1_IRQHandler
1a0001ba  w    F .text	00000002 GPIO5_IRQHandler
1a001ea8 g     F .text	000000dc cdcUartLpcInit
1a0001ba  w    F .text	00000002 CAN1_IRQHandler
1a001588 g     F .text	00000014 Chip_Clock_EnablePLL
1a0006d6 g     F .text	0000000a _fstat_r
53ff724e g       *ABS*	00000000 __valid_user_code_checksum
1a003494 g       .ARM.exidx	00000000 _etext
1a0001ba  w    F .text	00000002 USB1_IRQHandler
1a0001ba  w    F .text	00000002 I2S0_IRQHandler
1a003014 g     O .text	00000082 USB_StringDescriptor
1a0001ba  w    F .text	00000002 TIMER3_IRQHandler
1a00144c g     F .text	0000000c Chip_Clock_GetBaseClocktHz
1a0001ba  w    F .text	00000002 UART0_IRQHandler
1a0001a8 g     F .text	00000012 bss_init
1a0001ba  w    F .text	00000002 SGPIO_IRQHandler
1a002884 g     F .text	0000000c _cleanup_r
1a001548 g     F .text	00000040 Chip_Clock_SetupPLL
1a0023b4 g     F .text	00000000 .hidden __aeabi_uldivmod
1000018c g       .noinit	00000000 _noinit
1a002cb0 g     F .text	00000010 puts
10000178 g     O .bss	00000004 SystemCoreClock
1a0015d8 g     F .text	00000054 Chip_UART_Init
1a0001ba  w    F .text	00000002 ADC0_IRQHandler
1a000c24 g     F .text	00000018 readAdcVal
1a00221c g     F .text	000000ec usbDeviceInit
1a000180  w    F .text	00000002 UsageFault_Handler
1a0014fc g     F .text	0000004c Chip_Clock_GetRate
1a0001ba  w    F .text	00000002 GPIO6_IRQHandler
1a002ff4 g     O .text	00000012 USB_DeviceDescriptor
1a0007cc g     F .text	0000006c Board_SetupClocking
20008000 g       *ABS*	00000000 __top_RamAHB32
1a0023e4 g     F .text	000002d0 .hidden __udivmoddi4
1a000774 g     F .text	00000020 _sbrk_r
1a003150 g     O .text	00000004 ExtRateIn
1a0001ba  w    F .text	00000002 IntDefaultHandler
1a000300 g       .text	00000000 __CRP_WORD_END__
1a0006fc g     F .text	0000004e _read_r
1a0001ba  w    F .text	00000002 GPIO1_IRQHandler
1a000608 g     F .text	00000020 USB_MarcarBoton
1a002200 g     F .text	0000001a find_IntfDesc
1a0001ba  w    F .text	00000002 SSP0_IRQHandler
1a00348c g       .ARM.exidx	00000000 __exidx_start
10000182 g     O .bss	00000001 __lock___env_recursive_mutex
1a0002fc g     O .text	00000004 CRP_WORD
1a000c16 g     F .text	0000000e setStartMode
10000183 g     O .bss	00000001 __lock___sinit_recursive_mutex
1a003484 g     O .text	00000004 _global_impure_ptr
1a002a24 g     F .text	00000048 __libc_init_array
1a001a7c g     F .text	000000b8 adcInit
1a0001ba  w    F .text	00000002 ADC1_IRQHandler
1a000a50 g     F .text	00000030 Board_Init
1a0006ca  w    F .text	00000002 _init
1a000114 g       .text	00000000 __data_section_table
1a0001ba  w    F .text	00000002 RTC_IRQHandler
1000018c g       .bss	00000000 _ebss
1a000d50 g     F .text	0000002a Chip_ADC_EnableChannel
1a0001ba  w    F .text	00000002 TIMER0_IRQHandler
1a000640 g     F .text	00000088 Reset_Handler
1a001bb0 g     F .text	0000007c tickInit
20010000 g       *ABS*	00000000 __top_RamAHB_ETB16
1a0001ba  w    F .text	00000002 SPI_IRQHandler
1a000b94 g     F .text	00000038 Chip_I2C_SetClockRate
1a0001ba  w    F .text	00000002 LCD_IRQHandler
1a001168 g     F .text	0000004c Chip_Clock_EnableCrystal
10000184 g     O .bss	00000001 __lock___malloc_recursive_mutex
1a000c92 g     F .text	00000008 Chip_ADC_ReadValue
10008000 g       *ABS*	00000000 __top_RamLoc32
1a00018a g     F .text	0000001e data_init
1a0020dc g     F .text	00000038 EP0_patch
1a000cf2 g     F .text	00000020 Chip_ADC_SetStartMode
1a0001ba  w    F .text	00000002 TIMER1_IRQHandler
1a003424 g     O .text	00000020 __sf_fake_stderr
1a000b70 g     F .text	00000024 Chip_I2C_Init
1a002a70 g     F .text	00000002 __retarget_lock_release_recursive
1a0001ba  w    F .text	00000002 UART2_IRQHandler
1a001324 g     F .text	0000006c Chip_Clock_GetMainPLLHz
1a003264 g     O .text	000000e6 gpioPinsInit
1a000ac8 g     F .text	00000012 Chip_SSP_SetClockRate
1a003096 g     O .text	00000002 Keyboard_ReportDescSize
1a0001ba  w    F .text	00000002 GPIO2_IRQHandler
1a0028bc g     F .text	0000000c __sfp_lock_acquire
1a002a84 g     F .text	0000009c _free_r
1a001b34 g     F .text	00000058 adcRead
1a001426 g     F .text	00000026 Chip_Clock_GetBaseClock
1a00159c g     F .text	0000000e Chip_Clock_GetPLLStatus
100000f8 g       .bss	00000000 _bss
1a000c9a g     F .text	00000036 Chip_ADC_ReadStatus
1a000d12 g     F .text	00000032 Chip_ADC_SetSampleRate
1a0001ba  w    F .text	00000002 I2S1_IRQHandler
1a000ada g     F .text	0000003e Chip_SSP_SetBitRate
1a000bcc g     F .text	00000002 Chip_GPIO_Init
1a00317c g     O .text	00000004 OscRateIn
1a001c58 g     F .text	0000007c uartInit
1000018c g       .noinit	00000000 _end_noinit
10008000 g       *ABS*	00000000 _vStackTop
1a0001ba  w    F .text	00000002 SSP1_IRQHandler
1a000178 g       .text	00000000 __bss_section_table_end
1a0006cc g     F .text	0000000a _close_r
1a0017fc g     F .text	000001ac gpioInit
1a0017a8 g     F .text	00000004 sleepUntilNextInterrupt
1a000300 g     F .text	00000042 Joystick_LeerDirs
1a002dec g     F .text	000000dc __swsetup_r
1a0026b4  w    F .text	00000002 .hidden __aeabi_ldiv0
1a00295c g     F .text	0000008c __sfp
1a002040 g     F .text	0000009c usbDeviceKeyboardInit
1a0028e0 g     F .text	0000000c __sinit_lock_release
1a002cc0 g     F .text	00000022 __sread
1a0021e4 g     F .text	0000001c USB0_IRQHandler
1a0014c8 g     F .text	00000034 Chip_Clock_Disable
1a0001ba  w    F .text	00000002 GPIO3_IRQHandler
1a002f90 g     F .text	0000000c __malloc_lock
1a0009b8 g     F .text	00000014 Board_UARTPutChar
1a00162c g     F .text	00000028 Chip_UART_Send
1a0001ba  w    F .text	00000002 SCT_IRQHandler
1a0027c4 g     F .text	00000078 _fflush_r
1a003444 g     O .text	00000020 __sf_fake_stdin
1a0011d0 g     F .text	0000001c Chip_Clock_GetDividerDivisor
1a0002fc g       .text	00000000 __CRP_WORD_START__
1a002a6e g     F .text	00000002 __retarget_lock_acquire_recursive
1a002a72 g     F .text	00000010 memset
1a00017c  w    F .text	00000002 MemManage_Handler
1a00038c g     F .text	000000f8 main
1a000510 g     F .text	00000084 usbDeviceGamepadInit
1a002a6c g     F .text	00000002 __retarget_lock_init_recursive
1a0001ba  w    F .text	00000002 WDT_IRQHandler
2000c000 g       *ABS*	00000000 __top_RamAHB16
1008a000 g       *ABS*	00000000 __top_RamLoc40
1a000182  w    F .text	00000002 SVC_Handler
1a002d3e g     F .text	00000008 __sclose
1a000a38 g     F .text	00000016 Board_LED_Toggle
1a002b20 g     F .text	000000b4 _malloc_r
1a0001ba  w    F .text	00000002 GPIO7_IRQHandler
1a001458 g     F .text	0000003c Chip_Clock_EnableOpts
1a000a8a g     F .text	00000008 __stdio_getchar
1a003098 g     O .text	0000003f Keyboard_ReportDescriptor
1a0011ec g     F .text	000000b8 Chip_Clock_GetClockInputHz
1a000a0c g     F .text	0000002c Board_LED_Test
1a0012a4 g     F .text	00000080 Chip_Clock_CalcMainPLLValue
1a003008 g     O .text	0000000a USB_DeviceQualifier
1a001770 g     F .text	00000038 SystemInit
1a0001ba  w    F .text	00000002 SPIFI_IRQHandler
1a00237c g     F .text	00000038 delay
1a0001ba  w    F .text	00000002 QEI_IRQHandler
1a000150 g       .text	00000000 __bss_section_table
1a0019a8 g     F .text	0000006a gpioWrite
1a0006c8  w    F .text	00000002 _fini
1a000c3c g     F .text	00000040 Chip_ADC_Init
1000017c g     O .bss	00000004 g_pUsbApi
1a000794 g     F .text	00000038 Board_SetupMuxing
1a001694 g     F .text	000000dc Chip_UART_SetBaudFDR
1a001b8c g     F .text	0000000c tickRead
1a00074a g     F .text	00000028 _write_r
10000088 g     O .data	00000008 tickRateMS
1a000d7a g     F .text	00000022 Chip_ADC_SetBurstCmd
1a000628 g     F .text	00000014 USB_PresionarBotones
1a0001ba  w    F .text	00000002 ETH_IRQHandler
10000090 g     O .data	00000004 _impure_ptr
1a0005f4 g     F .text	00000014 usbDeviceGamepadCheckCallbackSet
1a0026b8 g     F .text	0000010c __sflush_r
10000000 g       .uninit_RESERVED	00000000 _end_uninit_RESERVED
1a0001ba  w    F .text	00000002 CAN0_IRQHandler
10000000 g       .data	00000000 _data
10000024 g     O .data	00000023 USB_HsConfigDescriptor
1000018c g       .bss	00000000 _pvHeapStart
1a000178 g       .text	00000000 __section_table_end
1a000b18 g     F .text	00000038 Chip_SSP_Init
1a0001ba  w    F .text	00000002 GINT0_IRQHandler
1a002ec8 g     F .text	00000048 __swhatbuf_r
1a0001ba  w    F .text	00000002 DAC_IRQHandler
1a000994 g     F .text	00000024 Board_Debug_Init
1a000a80 g     F .text	0000000a __stdio_putchar
1a000cd0 g     F .text	00000022 Chip_ADC_Int_SetChannelCmd
100000f4 g       .data	00000000 _edata
1a000b50 g     F .text	00000020 Chip_I2C_EventHandler
1a0001ba  w    F .text	00000002 M0SUB_IRQHandler
10000185 g     O .bss	00000001 __lock___at_quick_exit_mutex
1a000d9c g     F .text	00000158 Chip_SetupCoreClock
10000000 g     O .data	00000023 USB_FsConfigDescriptor
1a002ce2 g     F .text	00000038 __swrite
1a0001ba  w    F .text	00000002 GPIO0_IRQHandler
1a000000 g     O .text	00000040 g_pfnVectors
1a0029e8 g     F .text	0000003c _fwalk_reent
1a000f5c g     F .text	00000014 SystemCoreClockUpdate
1a000342 g     F .text	00000048 checkForPressedButtons
1a0005e0 g     F .text	00000014 usbDeviceGamepadPress
1a0001ba  w    F .text	00000002 DMA_IRQHandler
1a0001ba  w    F .text	00000002 EVRT_IRQHandler
1b080000 g       *ABS*	00000000 __top_MFlashB512
1a0028c8 g     F .text	0000000c __sfp_lock_release
1a003464 g     O .text	00000020 __sf_fake_stdout
1a0026b4  w    F .text	00000002 .hidden __aeabi_idiv0
1a002fa8 g     O .text	00000002 Gamepad_ReportDescSize
1a00017e  w    F .text	00000002 BusFault_Handler
10000186 g     O .bss	00000001 __lock___dd_hash_mutex
1a002f10 g     F .text	00000080 __smakebuf_r
10000187 g     O .bss	00000001 __lock___tz_mutex
1a001494 g     F .text	00000034 Chip_Clock_Enable
1a0001ba  w    F .text	00000002 UART3_IRQHandler
10000174 g     O .bss	00000004 __malloc_sbrk_start
1a0001ba  w    F .text	00000002 MCPWM_IRQHandler
1a0009e8 g     F .text	00000024 Board_LED_Set
1a0001ba  w    F .text	00000002 M0APP_IRQHandler
1a001a12 g     F .text	00000068 gpioRead
1a002308 g     F .text	00000074 boardInit
10000170 g     O .bss	00000004 __malloc_free_list
10000160 g     O .bss	00000004 keyboardCheckKeysFunction
1a000040 g     O .text	000000d4 g_pfnVendorVectors
1a0001ba  w    F .text	00000002 GINT1_IRQHandler
1a001b98 g     F .text	00000018 tickPowerSet
1a002fac g     O .text	00000048 Gamepad_ReportDescriptor
1a00140c g     F .text	0000001a Chip_Clock_EnableBaseClock
1a0013b4 g     F .text	00000058 Chip_Clock_SetBaseClock
1a0017ac g     F .text	0000001c cyclesCounterInit
1a0001ba  w    F .text	00000002 GPIO4_IRQHandler
10000188 g     O .bss	00000001 __lock___sfp_recursive_mutex
1a0028d4 g     F .text	0000000c __sinit_lock_acquire
1a000838 g     F .text	0000000c Board_SystemInit



Disassembly of section .text:

1a000000 <g_pfnVectors>:
1a000000:	00 80 00 10 41 06 00 1a 79 01 00 1a 7b 01 00 1a     ....A...y...{...
1a000010:	7d 01 00 1a 7f 01 00 1a 81 01 00 1a 4e 72 ff 53     }...........Nr.S
	...
1a00002c:	83 01 00 1a 85 01 00 1a 00 00 00 00 87 01 00 1a     ................
1a00003c:	2d 1c 00 1a                                         -...

1a000040 <g_pfnVendorVectors>:
1a000040:	bb 01 00 1a bb 01 00 1a bb 01 00 1a 00 00 00 00     ................
1a000050:	bb 01 00 1a bb 01 00 1a bb 01 00 1a bb 01 00 1a     ................
1a000060:	e5 21 00 1a bb 01 00 1a bb 01 00 1a bb 01 00 1a     .!..............
1a000070:	bb 01 00 1a bb 01 00 1a bb 01 00 1a bb 01 00 1a     ................
1a000080:	bb 01 00 1a bb 01 00 1a bb 01 00 1a bb 01 00 1a     ................
1a000090:	bb 01 00 1a bb 01 00 1a bb 01 00 1a bb 01 00 1a     ................
1a0000a0:	bb 01 00 1a bb 01 00 1a bb 01 00 1a bb 01 00 1a     ................
1a0000b0:	bb 01 00 1a bb 01 00 1a bb 01 00 1a bb 01 00 1a     ................
1a0000c0:	bb 01 00 1a bb 01 00 1a bb 01 00 1a bb 01 00 1a     ................
1a0000d0:	bb 01 00 1a bb 01 00 1a bb 01 00 1a bb 01 00 1a     ................
1a0000e0:	bb 01 00 1a bb 01 00 1a bb 01 00 1a bb 01 00 1a     ................
1a0000f0:	00 00 00 00 bb 01 00 1a bb 01 00 1a bb 01 00 1a     ................
1a000100:	00 00 00 00 bb 01 00 1a bb 01 00 1a bb 01 00 1a     ................
1a000110:	bb 01 00 1a                                         ....

1a000114 <__data_section_table>:
1a000114:	1a003494 	.word	0x1a003494
1a000118:	10000000 	.word	0x10000000
1a00011c:	000000f4 	.word	0x000000f4
1a000120:	1a003494 	.word	0x1a003494
1a000124:	10080000 	.word	0x10080000
1a000128:	00000000 	.word	0x00000000
1a00012c:	1a003494 	.word	0x1a003494
1a000130:	20000000 	.word	0x20000000
1a000134:	00000000 	.word	0x00000000
1a000138:	1a003494 	.word	0x1a003494
1a00013c:	20008000 	.word	0x20008000
1a000140:	00000000 	.word	0x00000000
1a000144:	1a003494 	.word	0x1a003494
1a000148:	2000c000 	.word	0x2000c000
1a00014c:	00000000 	.word	0x00000000

1a000150 <__bss_section_table>:
1a000150:	100000f8 	.word	0x100000f8
1a000154:	00000094 	.word	0x00000094
1a000158:	10080000 	.word	0x10080000
1a00015c:	00000000 	.word	0x00000000
1a000160:	20000000 	.word	0x20000000
1a000164:	00000000 	.word	0x00000000
1a000168:	20008000 	.word	0x20008000
1a00016c:	00000000 	.word	0x00000000
1a000170:	2000c000 	.word	0x2000c000
1a000174:	00000000 	.word	0x00000000

1a000178 <NMI_Handler>:
1a000178:	e7fe      	b.n	1a000178 <NMI_Handler>

1a00017a <HardFault_Handler>:
1a00017a:	e7fe      	b.n	1a00017a <HardFault_Handler>

1a00017c <MemManage_Handler>:
1a00017c:	e7fe      	b.n	1a00017c <MemManage_Handler>

1a00017e <BusFault_Handler>:
1a00017e:	e7fe      	b.n	1a00017e <BusFault_Handler>

1a000180 <UsageFault_Handler>:
1a000180:	e7fe      	b.n	1a000180 <UsageFault_Handler>

1a000182 <SVC_Handler>:
1a000182:	e7fe      	b.n	1a000182 <SVC_Handler>

1a000184 <DebugMon_Handler>:
1a000184:	e7fe      	b.n	1a000184 <DebugMon_Handler>

1a000186 <PendSV_Handler>:
1a000186:	e7fe      	b.n	1a000186 <PendSV_Handler>
1a000188:	e7fe      	b.n	1a000188 <PendSV_Handler+0x2>

1a00018a <data_init>:
1a00018a:	2300      	movs	r3, #0
1a00018c:	4293      	cmp	r3, r2
1a00018e:	d20a      	bcs.n	1a0001a6 <data_init+0x1c>
1a000190:	b410      	push	{r4}
1a000192:	f850 4b04 	ldr.w	r4, [r0], #4
1a000196:	f841 4b04 	str.w	r4, [r1], #4
1a00019a:	3304      	adds	r3, #4
1a00019c:	4293      	cmp	r3, r2
1a00019e:	d3f8      	bcc.n	1a000192 <data_init+0x8>
1a0001a0:	f85d 4b04 	ldr.w	r4, [sp], #4
1a0001a4:	4770      	bx	lr
1a0001a6:	4770      	bx	lr

1a0001a8 <bss_init>:
1a0001a8:	2300      	movs	r3, #0
1a0001aa:	428b      	cmp	r3, r1
1a0001ac:	d204      	bcs.n	1a0001b8 <bss_init+0x10>
1a0001ae:	2200      	movs	r2, #0
1a0001b0:	f840 2b04 	str.w	r2, [r0], #4
1a0001b4:	3304      	adds	r3, #4
1a0001b6:	e7f8      	b.n	1a0001aa <bss_init+0x2>
1a0001b8:	4770      	bx	lr

1a0001ba <ADC0_IRQHandler>:
1a0001ba:	e7fe      	b.n	1a0001ba <ADC0_IRQHandler>
1a0001bc:	ffff ffff 			; <UNDEFINED> instruction: 0xffffffff
1a0001c0:	ffff ffff 			; <UNDEFINED> instruction: 0xffffffff
1a0001c4:	ffff ffff 			; <UNDEFINED> instruction: 0xffffffff
1a0001c8:	ffff ffff 			; <UNDEFINED> instruction: 0xffffffff
1a0001cc:	ffff ffff 			; <UNDEFINED> instruction: 0xffffffff
1a0001d0:	ffff ffff 			; <UNDEFINED> instruction: 0xffffffff
1a0001d4:	ffff ffff 			; <UNDEFINED> instruction: 0xffffffff
1a0001d8:	ffff ffff 			; <UNDEFINED> instruction: 0xffffffff
1a0001dc:	ffff ffff 			; <UNDEFINED> instruction: 0xffffffff
1a0001e0:	ffff ffff 			; <UNDEFINED> instruction: 0xffffffff
1a0001e4:	ffff ffff 			; <UNDEFINED> instruction: 0xffffffff
1a0001e8:	ffff ffff 			; <UNDEFINED> instruction: 0xffffffff
1a0001ec:	ffff ffff 			; <UNDEFINED> instruction: 0xffffffff
1a0001f0:	ffff ffff 			; <UNDEFINED> instruction: 0xffffffff
1a0001f4:	ffff ffff 			; <UNDEFINED> instruction: 0xffffffff
1a0001f8:	ffff ffff 			; <UNDEFINED> instruction: 0xffffffff
1a0001fc:	ffff ffff 			; <UNDEFINED> instruction: 0xffffffff
1a000200:	ffff ffff 			; <UNDEFINED> instruction: 0xffffffff
1a000204:	ffff ffff 			; <UNDEFINED> instruction: 0xffffffff
1a000208:	ffff ffff 			; <UNDEFINED> instruction: 0xffffffff
1a00020c:	ffff ffff 			; <UNDEFINED> instruction: 0xffffffff
1a000210:	ffff ffff 			; <UNDEFINED> instruction: 0xffffffff
1a000214:	ffff ffff 			; <UNDEFINED> instruction: 0xffffffff
1a000218:	ffff ffff 			; <UNDEFINED> instruction: 0xffffffff
1a00021c:	ffff ffff 			; <UNDEFINED> instruction: 0xffffffff
1a000220:	ffff ffff 			; <UNDEFINED> instruction: 0xffffffff
1a000224:	ffff ffff 			; <UNDEFINED> instruction: 0xffffffff
1a000228:	ffff ffff 			; <UNDEFINED> instruction: 0xffffffff
1a00022c:	ffff ffff 			; <UNDEFINED> instruction: 0xffffffff
1a000230:	ffff ffff 			; <UNDEFINED> instruction: 0xffffffff
1a000234:	ffff ffff 			; <UNDEFINED> instruction: 0xffffffff
1a000238:	ffff ffff 			; <UNDEFINED> instruction: 0xffffffff
1a00023c:	ffff ffff 			; <UNDEFINED> instruction: 0xffffffff
1a000240:	ffff ffff 			; <UNDEFINED> instruction: 0xffffffff
1a000244:	ffff ffff 			; <UNDEFINED> instruction: 0xffffffff
1a000248:	ffff ffff 			; <UNDEFINED> instruction: 0xffffffff
1a00024c:	ffff ffff 			; <UNDEFINED> instruction: 0xffffffff
1a000250:	ffff ffff 			; <UNDEFINED> instruction: 0xffffffff
1a000254:	ffff ffff 			; <UNDEFINED> instruction: 0xffffffff
1a000258:	ffff ffff 			; <UNDEFINED> instruction: 0xffffffff
1a00025c:	ffff ffff 			; <UNDEFINED> instruction: 0xffffffff
1a000260:	ffff ffff 			; <UNDEFINED> instruction: 0xffffffff
1a000264:	ffff ffff 			; <UNDEFINED> instruction: 0xffffffff
1a000268:	ffff ffff 			; <UNDEFINED> instruction: 0xffffffff
1a00026c:	ffff ffff 			; <UNDEFINED> instruction: 0xffffffff
1a000270:	ffff ffff 			; <UNDEFINED> instruction: 0xffffffff
1a000274:	ffff ffff 			; <UNDEFINED> instruction: 0xffffffff
1a000278:	ffff ffff 			; <UNDEFINED> instruction: 0xffffffff
1a00027c:	ffff ffff 			; <UNDEFINED> instruction: 0xffffffff
1a000280:	ffff ffff 			; <UNDEFINED> instruction: 0xffffffff
1a000284:	ffff ffff 			; <UNDEFINED> instruction: 0xffffffff
1a000288:	ffff ffff 			; <UNDEFINED> instruction: 0xffffffff
1a00028c:	ffff ffff 			; <UNDEFINED> instruction: 0xffffffff
1a000290:	ffff ffff 			; <UNDEFINED> instruction: 0xffffffff
1a000294:	ffff ffff 			; <UNDEFINED> instruction: 0xffffffff
1a000298:	ffff ffff 			; <UNDEFINED> instruction: 0xffffffff
1a00029c:	ffff ffff 			; <UNDEFINED> instruction: 0xffffffff
1a0002a0:	ffff ffff 			; <UNDEFINED> instruction: 0xffffffff
1a0002a4:	ffff ffff 			; <UNDEFINED> instruction: 0xffffffff
1a0002a8:	ffff ffff 			; <UNDEFINED> instruction: 0xffffffff
1a0002ac:	ffff ffff 			; <UNDEFINED> instruction: 0xffffffff
1a0002b0:	ffff ffff 			; <UNDEFINED> instruction: 0xffffffff
1a0002b4:	ffff ffff 			; <UNDEFINED> instruction: 0xffffffff
1a0002b8:	ffff ffff 			; <UNDEFINED> instruction: 0xffffffff
1a0002bc:	ffff ffff 			; <UNDEFINED> instruction: 0xffffffff
1a0002c0:	ffff ffff 			; <UNDEFINED> instruction: 0xffffffff
1a0002c4:	ffff ffff 			; <UNDEFINED> instruction: 0xffffffff
1a0002c8:	ffff ffff 			; <UNDEFINED> instruction: 0xffffffff
1a0002cc:	ffff ffff 			; <UNDEFINED> instruction: 0xffffffff
1a0002d0:	ffff ffff 			; <UNDEFINED> instruction: 0xffffffff
1a0002d4:	ffff ffff 			; <UNDEFINED> instruction: 0xffffffff
1a0002d8:	ffff ffff 			; <UNDEFINED> instruction: 0xffffffff
1a0002dc:	ffff ffff 			; <UNDEFINED> instruction: 0xffffffff
1a0002e0:	ffff ffff 			; <UNDEFINED> instruction: 0xffffffff
1a0002e4:	ffff ffff 			; <UNDEFINED> instruction: 0xffffffff
1a0002e8:	ffff ffff 			; <UNDEFINED> instruction: 0xffffffff
1a0002ec:	ffff ffff 			; <UNDEFINED> instruction: 0xffffffff
1a0002f0:	ffff ffff 			; <UNDEFINED> instruction: 0xffffffff
1a0002f4:	ffff ffff 			; <UNDEFINED> instruction: 0xffffffff
1a0002f8:	ffff ffff 			; <UNDEFINED> instruction: 0xffffffff

1a0002fc <CRP_WORD>:
1a0002fc:	ffff ffff                                   ....

1a000300 <Joystick_LeerDirs>:
   */
}


void Joystick_LeerDirs(uint16_t valorEjeX, uint16_t valorEjeY, Joystick_Direccion* dirs){
   if (valorEjeX > NEUTRO_MIN && valorEjeX < NEUTRO_MAX) dirs[0] = NONE;
1a000300:	f2a0 1391 	subw	r3, r0, #401	; 0x191
1a000304:	b29b      	uxth	r3, r3
1a000306:	2bde      	cmp	r3, #222	; 0xde
1a000308:	d809      	bhi.n	1a00031e <Joystick_LeerDirs+0x1e>
1a00030a:	2304      	movs	r3, #4
1a00030c:	7013      	strb	r3, [r2, #0]
   else if (valorEjeX <= NEUTRO_MIN) dirs[0] = LEFT;
   else dirs[0] = RIGHT;
      
   if (valorEjeY > NEUTRO_MIN && valorEjeY < NEUTRO_MAX) dirs[1] = NONE;
1a00030e:	f2a1 1391 	subw	r3, r1, #401	; 0x191
1a000312:	b29b      	uxth	r3, r3
1a000314:	2bde      	cmp	r3, #222	; 0xde
1a000316:	d80b      	bhi.n	1a000330 <Joystick_LeerDirs+0x30>
1a000318:	2304      	movs	r3, #4
1a00031a:	7053      	strb	r3, [r2, #1]
1a00031c:	4770      	bx	lr
   else if (valorEjeX <= NEUTRO_MIN) dirs[0] = LEFT;
1a00031e:	f5b0 7fc8 	cmp.w	r0, #400	; 0x190
1a000322:	d802      	bhi.n	1a00032a <Joystick_LeerDirs+0x2a>
1a000324:	2301      	movs	r3, #1
1a000326:	7013      	strb	r3, [r2, #0]
1a000328:	e7f1      	b.n	1a00030e <Joystick_LeerDirs+0xe>
   else dirs[0] = RIGHT;
1a00032a:	2302      	movs	r3, #2
1a00032c:	7013      	strb	r3, [r2, #0]
1a00032e:	e7ee      	b.n	1a00030e <Joystick_LeerDirs+0xe>
   else if (valorEjeY <= NEUTRO_MIN) dirs[1] = UP;
1a000330:	f5b1 7fc8 	cmp.w	r1, #400	; 0x190
1a000334:	d802      	bhi.n	1a00033c <Joystick_LeerDirs+0x3c>
1a000336:	2300      	movs	r3, #0
1a000338:	7053      	strb	r3, [r2, #1]
1a00033a:	4770      	bx	lr
   else dirs[1] = DOWN;
1a00033c:	2303      	movs	r3, #3
1a00033e:	7053      	strb	r3, [r2, #1]
1a000340:	4770      	bx	lr

1a000342 <checkForPressedButtons>:
   usbDeviceGamepadPress(31);
}
*/

void checkForPressedButtons(void* unused)
{
1a000342:	b508      	push	{r3, lr}
   if (!gpioRead(TEC1)) USB_MarcarBoton(1);
1a000344:	2024      	movs	r0, #36	; 0x24
1a000346:	f001 fb64 	bl	1a001a12 <gpioRead>
1a00034a:	b170      	cbz	r0, 1a00036a <checkForPressedButtons+0x28>
   if (!gpioRead(TEC2)) USB_MarcarBoton(2);
1a00034c:	2025      	movs	r0, #37	; 0x25
1a00034e:	f001 fb60 	bl	1a001a12 <gpioRead>
1a000352:	b170      	cbz	r0, 1a000372 <checkForPressedButtons+0x30>
   if (!gpioRead(TEC3)) USB_MarcarBoton(3);
1a000354:	2026      	movs	r0, #38	; 0x26
1a000356:	f001 fb5c 	bl	1a001a12 <gpioRead>
1a00035a:	b170      	cbz	r0, 1a00037a <checkForPressedButtons+0x38>
   if (!gpioRead(TEC4)) USB_MarcarBoton(4);   
1a00035c:	2027      	movs	r0, #39	; 0x27
1a00035e:	f001 fb58 	bl	1a001a12 <gpioRead>
1a000362:	b170      	cbz	r0, 1a000382 <checkForPressedButtons+0x40>
   
   USB_PresionarBotones();
1a000364:	f000 f960 	bl	1a000628 <USB_PresionarBotones>
}
1a000368:	bd08      	pop	{r3, pc}
   if (!gpioRead(TEC1)) USB_MarcarBoton(1);
1a00036a:	2001      	movs	r0, #1
1a00036c:	f000 f94c 	bl	1a000608 <USB_MarcarBoton>
1a000370:	e7ec      	b.n	1a00034c <checkForPressedButtons+0xa>
   if (!gpioRead(TEC2)) USB_MarcarBoton(2);
1a000372:	2002      	movs	r0, #2
1a000374:	f000 f948 	bl	1a000608 <USB_MarcarBoton>
1a000378:	e7ec      	b.n	1a000354 <checkForPressedButtons+0x12>
   if (!gpioRead(TEC3)) USB_MarcarBoton(3);
1a00037a:	2003      	movs	r0, #3
1a00037c:	f000 f944 	bl	1a000608 <USB_MarcarBoton>
1a000380:	e7ec      	b.n	1a00035c <checkForPressedButtons+0x1a>
   if (!gpioRead(TEC4)) USB_MarcarBoton(4);   
1a000382:	2004      	movs	r0, #4
1a000384:	f000 f940 	bl	1a000608 <USB_MarcarBoton>
1a000388:	e7ec      	b.n	1a000364 <checkForPressedButtons+0x22>
1a00038a:	Address 0x1a00038a is out of bounds.


1a00038c <main>:

// FUNCION PRINCIPAL, PUNTO DE ENTRADA AL PROGRAMA LUEGO DE ENCENDIDO O RESET.
int main( void )
{
1a00038c:	b510      	push	{r4, lr}
1a00038e:	b082      	sub	sp, #8
   // ---------- CONFIGURACIONES ------------------------------
   SystemCoreClockUpdate();
1a000390:	f000 fde4 	bl	1a000f5c <SystemCoreClockUpdate>
   Board_Init();
1a000394:	f000 fb5c 	bl	1a000a50 <Board_Init>
   SysTick_Config(SystemCoreClock / TICKRATE_HZ);
1a000398:	4b31      	ldr	r3, [pc, #196]	; (1a000460 <main+0xd4>)
1a00039a:	681b      	ldr	r3, [r3, #0]
1a00039c:	4a31      	ldr	r2, [pc, #196]	; (1a000464 <main+0xd8>)
1a00039e:	fba2 2303 	umull	r2, r3, r2, r3
1a0003a2:	099b      	lsrs	r3, r3, #6
           function <b>SysTick_Config</b> is not included. In this case, the file <b><i>device</i>.h</b>
           must contain a vendor-specific implementation of this function.
 */
__STATIC_INLINE uint32_t SysTick_Config(uint32_t ticks)
{
  if ((ticks - 1UL) > SysTick_LOAD_RELOAD_Msk)
1a0003a4:	3b01      	subs	r3, #1
1a0003a6:	f1b3 7f80 	cmp.w	r3, #16777216	; 0x1000000
1a0003aa:	d209      	bcs.n	1a0003c0 <main+0x34>
  {
    return (1UL);                                                   /* Reload value impossible */
  }

  SysTick->LOAD  = (uint32_t)(ticks - 1UL);                         /* set reload register */
1a0003ac:	4a2e      	ldr	r2, [pc, #184]	; (1a000468 <main+0xdc>)
1a0003ae:	6053      	str	r3, [r2, #4]
    SCB->SHP[(((uint32_t)IRQn) & 0xFUL)-4UL] = (uint8_t)((priority << (8U - __NVIC_PRIO_BITS)) & (uint32_t)0xFFUL);
1a0003b0:	4b2e      	ldr	r3, [pc, #184]	; (1a00046c <main+0xe0>)
1a0003b2:	21e0      	movs	r1, #224	; 0xe0
1a0003b4:	f883 1023 	strb.w	r1, [r3, #35]	; 0x23
  NVIC_SetPriority (SysTick_IRQn, (1UL << __NVIC_PRIO_BITS) - 1UL); /* set Priority for Systick Interrupt */
  SysTick->VAL   = 0UL;                                             /* Load the SysTick Counter Value */
1a0003b8:	2300      	movs	r3, #0
1a0003ba:	6093      	str	r3, [r2, #8]
  SysTick->CTRL  = SysTick_CTRL_CLKSOURCE_Msk |
1a0003bc:	2307      	movs	r3, #7
1a0003be:	6013      	str	r3, [r2, #0]
   
   /* ------------- INICIALIZACIONES ------------- */

   /* Inicializar la placa */
   boardConfig();
1a0003c0:	f001 ffa2 	bl	1a002308 <boardInit>
   
   // Configuración/Inicialización de HID Gamepad
   usbDeviceConfig(USB_HID_GAMEPAD);
1a0003c4:	2002      	movs	r0, #2
1a0003c6:	f001 ff29 	bl	1a00221c <usbDeviceInit>
   usbDeviceGamepadCheckCallbackSet(checkForPressedButtons);
1a0003ca:	4829      	ldr	r0, [pc, #164]	; (1a000470 <main+0xe4>)
1a0003cc:	f000 f912 	bl	1a0005f4 <usbDeviceGamepadCheckCallbackSet>
   
   // Habilitar ADC
   adcConfig( ADC_ENABLE ); /* ADC */
1a0003d0:	2000      	movs	r0, #0
1a0003d2:	f001 fb53 	bl	1a001a7c <adcInit>
   
   // Habilitar UART (DEBUG)
   // Inicializar UART_USB a 115200 baudios
   uartConfig( UART_USB, 115200 );
1a0003d6:	f44f 31e1 	mov.w	r1, #115200	; 0x1c200
1a0003da:	2003      	movs	r0, #3
1a0003dc:	f001 fc3c 	bl	1a001c58 <uartInit>
   
   // Establecer T_COL1 como entrada digital
   gpioInit( T_COL1, GPIO_INPUT );
1a0003e0:	2100      	movs	r1, #0
1a0003e2:	2006      	movs	r0, #6
1a0003e4:	f001 fa0a 	bl	1a0017fc <gpioInit>
1a0003e8:	e015      	b.n	1a000416 <main+0x8a>
      switch(dirs[0]){
         case NONE:
            break;
         case LEFT:
            // Board_LED_Set(3, true);
            FLAG_LEFT = 1;
1a0003ea:	4b22      	ldr	r3, [pc, #136]	; (1a000474 <main+0xe8>)
1a0003ec:	2201      	movs	r2, #1
1a0003ee:	701a      	strb	r2, [r3, #0]
            break;
1a0003f0:	e02c      	b.n	1a00044c <main+0xc0>
         case RIGHT:
            // Board_LED_Set(4, true);
            FLAG_RIGHT = 0;
1a0003f2:	4b21      	ldr	r3, [pc, #132]	; (1a000478 <main+0xec>)
1a0003f4:	2200      	movs	r2, #0
1a0003f6:	701a      	strb	r2, [r3, #0]
            break;
1a0003f8:	e028      	b.n	1a00044c <main+0xc0>
      switch(dirs[1]){
         case NONE:
            break;
         case UP:
            // Board_LED_Set(0, true);
            FLAG_UP = 1;
1a0003fa:	4b20      	ldr	r3, [pc, #128]	; (1a00047c <main+0xf0>)
1a0003fc:	2201      	movs	r2, #1
1a0003fe:	701a      	strb	r2, [r3, #0]
      if( !gpioRead( T_COL1 ) ){
         Board_LED_Set(5, true);
      } else Board_LED_Set(5, false);
      */
      
      usbDeviceGamepadPress(100);
1a000400:	2064      	movs	r0, #100	; 0x64
1a000402:	f000 f8ed 	bl	1a0005e0 <usbDeviceGamepadPress>
      
      uint8_t sent = usbDeviceGamepadTasks();
1a000406:	f000 f8c5 	bl	1a000594 <usbDeviceGamepadTasks>
      sleepUntilNextInterrupt();
1a00040a:	f001 f9cd 	bl	1a0017a8 <sleepUntilNextInterrupt>
      
      // Board_LED_Toggle(5);
      delay(200);
1a00040e:	20c8      	movs	r0, #200	; 0xc8
1a000410:	2100      	movs	r1, #0
1a000412:	f001 ffb3 	bl	1a00237c <delay>
      uint16_t valorEjeX = adcRead( CH3 );
1a000416:	2002      	movs	r0, #2
1a000418:	f001 fb8c 	bl	1a001b34 <adcRead>
1a00041c:	4604      	mov	r4, r0
      uint16_t valorEjeY = adcRead( CH2 );
1a00041e:	2001      	movs	r0, #1
1a000420:	f001 fb88 	bl	1a001b34 <adcRead>
      Joystick_LeerDirs(valorEjeX, valorEjeY, dirs);
1a000424:	aa01      	add	r2, sp, #4
1a000426:	4601      	mov	r1, r0
1a000428:	4620      	mov	r0, r4
1a00042a:	f7ff ff69 	bl	1a000300 <Joystick_LeerDirs>
      FLAG_UP = 0;
1a00042e:	2300      	movs	r3, #0
1a000430:	4a12      	ldr	r2, [pc, #72]	; (1a00047c <main+0xf0>)
1a000432:	7013      	strb	r3, [r2, #0]
      FLAG_DOWN = 0;
1a000434:	4a12      	ldr	r2, [pc, #72]	; (1a000480 <main+0xf4>)
1a000436:	7013      	strb	r3, [r2, #0]
      FLAG_LEFT = 0;
1a000438:	4a0e      	ldr	r2, [pc, #56]	; (1a000474 <main+0xe8>)
1a00043a:	7013      	strb	r3, [r2, #0]
      FLAG_RIGHT = 0;
1a00043c:	4a0e      	ldr	r2, [pc, #56]	; (1a000478 <main+0xec>)
1a00043e:	7013      	strb	r3, [r2, #0]
      switch(dirs[0]){
1a000440:	f89d 3004 	ldrb.w	r3, [sp, #4]
1a000444:	2b01      	cmp	r3, #1
1a000446:	d0d0      	beq.n	1a0003ea <main+0x5e>
1a000448:	2b02      	cmp	r3, #2
1a00044a:	d0d2      	beq.n	1a0003f2 <main+0x66>
      switch(dirs[1]){
1a00044c:	f89d 3005 	ldrb.w	r3, [sp, #5]
1a000450:	2b00      	cmp	r3, #0
1a000452:	d0d2      	beq.n	1a0003fa <main+0x6e>
1a000454:	2b03      	cmp	r3, #3
1a000456:	d1d3      	bne.n	1a000400 <main+0x74>
            FLAG_DOWN = 1;
1a000458:	4b09      	ldr	r3, [pc, #36]	; (1a000480 <main+0xf4>)
1a00045a:	2201      	movs	r2, #1
1a00045c:	701a      	strb	r2, [r3, #0]
            break;
1a00045e:	e7cf      	b.n	1a000400 <main+0x74>
1a000460:	10000178 	.word	0x10000178
1a000464:	10624dd3 	.word	0x10624dd3
1a000468:	e000e010 	.word	0xe000e010
1a00046c:	e000ed00 	.word	0xe000ed00
1a000470:	1a000343 	.word	0x1a000343
1a000474:	100000f9 	.word	0x100000f9
1a000478:	100000fa 	.word	0x100000fa
1a00047c:	100000fb 	.word	0x100000fb
1a000480:	100000f8 	.word	0x100000f8

1a000484 <Gamepad_EpIN_Hdlr>:
}

// Manejador de interrupciones
static ErrorCode_t Gamepad_EpIN_Hdlr(USBD_HANDLE_T hUsb, void *data, uint32_t event){
 
   switch (event) {
1a000484:	2a03      	cmp	r2, #3
1a000486:	d001      	beq.n	1a00048c <Gamepad_EpIN_Hdlr+0x8>
         g_gamePad.tx_busy = 0;
         break;
   }
   
   return LPC_OK;
}
1a000488:	2000      	movs	r0, #0
1a00048a:	4770      	bx	lr
         g_gamePad.tx_busy = 0;
1a00048c:	4b01      	ldr	r3, [pc, #4]	; (1a000494 <Gamepad_EpIN_Hdlr+0x10>)
1a00048e:	2200      	movs	r2, #0
1a000490:	731a      	strb	r2, [r3, #12]
         break;
1a000492:	e7f9      	b.n	1a000488 <Gamepad_EpIN_Hdlr+0x4>
1a000494:	100000fc 	.word	0x100000fc

1a000498 <Gamepad_SetReport>:
static ErrorCode_t Gamepad_SetReport(USBD_HANDLE_T hHid, USB_SETUP_PACKET *pSetup, uint8_t * *pBuffer, uint16_t length){
1a000498:	b508      	push	{r3, lr}
   Board_LED_Toggle(3);
1a00049a:	2003      	movs	r0, #3
1a00049c:	f000 facc 	bl	1a000a38 <Board_LED_Toggle>
}
1a0004a0:	2000      	movs	r0, #0
1a0004a2:	bd08      	pop	{r3, pc}

1a0004a4 <Gamepad_UpdateReport>:
static void Gamepad_UpdateReport(){
1a0004a4:	b508      	push	{r3, lr}
   HID_GAMEPAD_CLEAR_REPORT(&g_gamePad.report[0]);
1a0004a6:	4a06      	ldr	r2, [pc, #24]	; (1a0004c0 <Gamepad_UpdateReport+0x1c>)
1a0004a8:	2300      	movs	r3, #0
1a0004aa:	6053      	str	r3, [r2, #4]
1a0004ac:	6093      	str	r3, [r2, #8]
   Board_LED_Toggle(3);
1a0004ae:	2003      	movs	r0, #3
1a0004b0:	f000 fac2 	bl	1a000a38 <Board_LED_Toggle>
   if (gamepadCheckFunction != NULL) {
1a0004b4:	4b03      	ldr	r3, [pc, #12]	; (1a0004c4 <Gamepad_UpdateReport+0x20>)
1a0004b6:	681b      	ldr	r3, [r3, #0]
1a0004b8:	b10b      	cbz	r3, 1a0004be <Gamepad_UpdateReport+0x1a>
      (* gamepadCheckFunction )( NULL );
1a0004ba:	2000      	movs	r0, #0
1a0004bc:	4798      	blx	r3
}
1a0004be:	bd08      	pop	{r3, pc}
1a0004c0:	100000fc 	.word	0x100000fc
1a0004c4:	1000010c 	.word	0x1000010c

1a0004c8 <Gamepad_GetReport>:
static ErrorCode_t Gamepad_GetReport(USBD_HANDLE_T hHid, USB_SETUP_PACKET *pSetup, uint8_t * *pBuffer, uint16_t *plength){
1a0004c8:	b570      	push	{r4, r5, r6, lr}
1a0004ca:	460c      	mov	r4, r1
1a0004cc:	4616      	mov	r6, r2
1a0004ce:	461d      	mov	r5, r3
   Board_LED_Toggle(5);
1a0004d0:	2005      	movs	r0, #5
1a0004d2:	f000 fab1 	bl	1a000a38 <Board_LED_Toggle>
   switch (pSetup->wValue.WB.H) {
1a0004d6:	78e3      	ldrb	r3, [r4, #3]
1a0004d8:	2b01      	cmp	r3, #1
1a0004da:	d005      	beq.n	1a0004e8 <Gamepad_GetReport+0x20>
1a0004dc:	b25a      	sxtb	r2, r3
1a0004de:	b172      	cbz	r2, 1a0004fe <Gamepad_GetReport+0x36>
1a0004e0:	2b03      	cmp	r3, #3
1a0004e2:	d80e      	bhi.n	1a000502 <Gamepad_GetReport+0x3a>
         return ERR_USBD_STALL;
1a0004e4:	4808      	ldr	r0, [pc, #32]	; (1a000508 <Gamepad_GetReport+0x40>)
}
1a0004e6:	bd70      	pop	{r4, r5, r6, pc}
         Gamepad_UpdateReport();
1a0004e8:	f7ff ffdc 	bl	1a0004a4 <Gamepad_UpdateReport>
         memcpy(*pBuffer, &g_gamePad.report[0], GAMEPAD_REPORT_SIZE);
1a0004ec:	6832      	ldr	r2, [r6, #0]
1a0004ee:	4b07      	ldr	r3, [pc, #28]	; (1a00050c <Gamepad_GetReport+0x44>)
1a0004f0:	cb03      	ldmia	r3!, {r0, r1}
1a0004f2:	6010      	str	r0, [r2, #0]
1a0004f4:	6051      	str	r1, [r2, #4]
         *plength = GAMEPAD_REPORT_SIZE;
1a0004f6:	2308      	movs	r3, #8
1a0004f8:	802b      	strh	r3, [r5, #0]
	return LPC_OK;
1a0004fa:	2000      	movs	r0, #0
      break;
1a0004fc:	e7f3      	b.n	1a0004e6 <Gamepad_GetReport+0x1e>
	return LPC_OK;
1a0004fe:	2000      	movs	r0, #0
1a000500:	e7f1      	b.n	1a0004e6 <Gamepad_GetReport+0x1e>
1a000502:	2000      	movs	r0, #0
1a000504:	e7ef      	b.n	1a0004e6 <Gamepad_GetReport+0x1e>
1a000506:	bf00      	nop
1a000508:	00040003 	.word	0x00040003
1a00050c:	10000100 	.word	0x10000100

1a000510 <usbDeviceGamepadInit>:

/*****************************************************************************
 * Public functions
 ****************************************************************************/

ErrorCode_t usbDeviceGamepadInit(USBD_HANDLE_T hUsb, USB_INTERFACE_DESCRIPTOR *pIntfDesc, uint32_t *mem_base, uint32_t *mem_size){
1a000510:	b5f0      	push	{r4, r5, r6, r7, lr}
1a000512:	b091      	sub	sp, #68	; 0x44
1a000514:	4605      	mov	r5, r0
1a000516:	460c      	mov	r4, r1
1a000518:	4617      	mov	r7, r2
1a00051a:	461e      	mov	r6, r3
   USBD_HID_INIT_PARAM_T hid_param;
   USB_HID_REPORT_T reports_data[1];
   ErrorCode_t ret = LPC_OK;
   
   // Configurar parámetros HID
   memset((void *) &hid_param, 0, sizeof(USBD_HID_INIT_PARAM_T));
1a00051c:	2238      	movs	r2, #56	; 0x38
1a00051e:	2100      	movs	r1, #0
1a000520:	a802      	add	r0, sp, #8
1a000522:	f002 faa6 	bl	1a002a72 <memset>
   hid_param.max_reports = 1;
1a000526:	2301      	movs	r3, #1
1a000528:	f88d 3010 	strb.w	r3, [sp, #16]
   hid_param.mem_base = *mem_base;
1a00052c:	683b      	ldr	r3, [r7, #0]
1a00052e:	9302      	str	r3, [sp, #8]
   hid_param.mem_size = *mem_size;
1a000530:	6833      	ldr	r3, [r6, #0]
1a000532:	9303      	str	r3, [sp, #12]
   hid_param.intf_desc = (uint8_t *) pIntfDesc;
1a000534:	9405      	str	r4, [sp, #20]
   
   // Funciones definidas para Gamepad
   // Se debe respetar el prototipo según usbd_hiduser.h (de sAPI)
   hid_param.HID_GetReport = Gamepad_GetReport;
1a000536:	4b10      	ldr	r3, [pc, #64]	; (1a000578 <usbDeviceGamepadInit+0x68>)
1a000538:	9307      	str	r3, [sp, #28]
   hid_param.HID_SetReport = Gamepad_SetReport;
1a00053a:	4b10      	ldr	r3, [pc, #64]	; (1a00057c <usbDeviceGamepadInit+0x6c>)
1a00053c:	9308      	str	r3, [sp, #32]
   hid_param.HID_EpIn_Hdlr = Gamepad_EpIN_Hdlr;
1a00053e:	4b10      	ldr	r3, [pc, #64]	; (1a000580 <usbDeviceGamepadInit+0x70>)
1a000540:	930c      	str	r3, [sp, #48]	; 0x30
   
   // Inicializar reports_data
   reports_data[0].len = Gamepad_ReportDescSize;
1a000542:	4b10      	ldr	r3, [pc, #64]	; (1a000584 <usbDeviceGamepadInit+0x74>)
1a000544:	881b      	ldrh	r3, [r3, #0]
1a000546:	f8ad 3000 	strh.w	r3, [sp]
   reports_data[0].idle_time = 0;
1a00054a:	2400      	movs	r4, #0
1a00054c:	f88d 4002 	strb.w	r4, [sp, #2]
   reports_data[0].desc = (uint8_t *) &Gamepad_ReportDescriptor[0];
1a000550:	4b0d      	ldr	r3, [pc, #52]	; (1a000588 <usbDeviceGamepadInit+0x78>)
1a000552:	9301      	str	r3, [sp, #4]
   hid_param.report_data = reports_data;
1a000554:	f8cd d018 	str.w	sp, [sp, #24]
   
   // Fin de inicialización con USBD API
   ret = USBD_API->hid->init(hUsb, &hid_param);
1a000558:	4b0c      	ldr	r3, [pc, #48]	; (1a00058c <usbDeviceGamepadInit+0x7c>)
1a00055a:	681b      	ldr	r3, [r3, #0]
1a00055c:	691b      	ldr	r3, [r3, #16]
1a00055e:	685b      	ldr	r3, [r3, #4]
1a000560:	a902      	add	r1, sp, #8
1a000562:	4628      	mov	r0, r5
1a000564:	4798      	blx	r3
   
   // Actualizar parámetros por referencia de memoria
   *mem_base = hid_param.mem_base;
1a000566:	9b02      	ldr	r3, [sp, #8]
1a000568:	603b      	str	r3, [r7, #0]
   *mem_size = hid_param.mem_size;
1a00056a:	9b03      	ldr	r3, [sp, #12]
1a00056c:	6033      	str	r3, [r6, #0]
   
   g_gamePad.hUsb = hUsb;
1a00056e:	4b08      	ldr	r3, [pc, #32]	; (1a000590 <usbDeviceGamepadInit+0x80>)
1a000570:	601d      	str	r5, [r3, #0]
   g_gamePad.tx_busy = 0;
1a000572:	731c      	strb	r4, [r3, #12]
   
   // Se devuelve estado resultado de la inicialización
   return ret;
}
1a000574:	b011      	add	sp, #68	; 0x44
1a000576:	bdf0      	pop	{r4, r5, r6, r7, pc}
1a000578:	1a0004c9 	.word	0x1a0004c9
1a00057c:	1a000499 	.word	0x1a000499
1a000580:	1a000485 	.word	0x1a000485
1a000584:	1a002fa8 	.word	0x1a002fa8
1a000588:	1a002fac 	.word	0x1a002fac
1a00058c:	1000017c 	.word	0x1000017c
1a000590:	100000fc 	.word	0x100000fc

1a000594 <usbDeviceGamepadTasks>:


uint8_t usbDeviceGamepadTasks(void){
   
   // Primero nos aseguramos que el dispositivo esté configurado
   if (USB_IsConfigured(g_gamePad.hUsb)){
1a000594:	4b10      	ldr	r3, [pc, #64]	; (1a0005d8 <usbDeviceGamepadTasks+0x44>)
1a000596:	681b      	ldr	r3, [r3, #0]
}

static INLINE bool USB_IsConfigured(USBD_HANDLE_T hUsb)
{
    USB_CORE_CTRL_T* pCtrl = (USB_CORE_CTRL_T*) hUsb;
    return (bool) (pCtrl->config_value != 0);   
1a000598:	f893 30fd 	ldrb.w	r3, [r3, #253]	; 0xfd
1a00059c:	b1bb      	cbz	r3, 1a0005ce <usbDeviceGamepadTasks+0x3a>
      
      // Enviar datos de reporte si esta libre
      if (g_gamePad.tx_busy == 0){
1a00059e:	4b0e      	ldr	r3, [pc, #56]	; (1a0005d8 <usbDeviceGamepadTasks+0x44>)
1a0005a0:	7b1b      	ldrb	r3, [r3, #12]
1a0005a2:	b9bb      	cbnz	r3, 1a0005d4 <usbDeviceGamepadTasks+0x40>
uint8_t usbDeviceGamepadTasks(void){
1a0005a4:	b570      	push	{r4, r5, r6, lr}
         g_gamePad.tx_busy = 1;      // marcar como ocupado
1a0005a6:	4c0c      	ldr	r4, [pc, #48]	; (1a0005d8 <usbDeviceGamepadTasks+0x44>)
1a0005a8:	2501      	movs	r5, #1
1a0005aa:	7325      	strb	r5, [r4, #12]
         Gamepad_UpdateReport();                // cargar reporte
1a0005ac:	f7ff ff7a 	bl	1a0004a4 <Gamepad_UpdateReport>
         USBD_API->hw->WriteEP(g_gamePad.hUsb, HID_EP_IN, &g_gamePad.report[0], GAMEPAD_REPORT_SIZE);
1a0005b0:	4b0a      	ldr	r3, [pc, #40]	; (1a0005dc <usbDeviceGamepadTasks+0x48>)
1a0005b2:	681b      	ldr	r3, [r3, #0]
1a0005b4:	681b      	ldr	r3, [r3, #0]
1a0005b6:	6d1e      	ldr	r6, [r3, #80]	; 0x50
1a0005b8:	4622      	mov	r2, r4
1a0005ba:	f852 0b04 	ldr.w	r0, [r2], #4
1a0005be:	2308      	movs	r3, #8
1a0005c0:	2181      	movs	r1, #129	; 0x81
1a0005c2:	47b0      	blx	r6
         Board_LED_Toggle(1);
1a0005c4:	4628      	mov	r0, r5
1a0005c6:	f000 fa37 	bl	1a000a38 <Board_LED_Toggle>
      // Si no está configurado, marcar como no ocupado
      g_gamePad.tx_busy = 0;
   }
   
   return 0;
}
1a0005ca:	2000      	movs	r0, #0
1a0005cc:	bd70      	pop	{r4, r5, r6, pc}
      g_gamePad.tx_busy = 0;
1a0005ce:	4b02      	ldr	r3, [pc, #8]	; (1a0005d8 <usbDeviceGamepadTasks+0x44>)
1a0005d0:	2200      	movs	r2, #0
1a0005d2:	731a      	strb	r2, [r3, #12]
}
1a0005d4:	2000      	movs	r0, #0
1a0005d6:	4770      	bx	lr
1a0005d8:	100000fc 	.word	0x100000fc
1a0005dc:	1000017c 	.word	0x1000017c

1a0005e0 <usbDeviceGamepadPress>:

void usbDeviceGamepadPress( uint8_t key )
{
1a0005e0:	b508      	push	{r3, lr}
   HID_GAMEPAD_REPORT_SET_VALUE(g_gamePad.report, key);
1a0005e2:	4b03      	ldr	r3, [pc, #12]	; (1a0005f0 <usbDeviceGamepadPress+0x10>)
1a0005e4:	72d8      	strb	r0, [r3, #11]
   Board_LED_Toggle(7);
1a0005e6:	2007      	movs	r0, #7
1a0005e8:	f000 fa26 	bl	1a000a38 <Board_LED_Toggle>
}
1a0005ec:	bd08      	pop	{r3, pc}
1a0005ee:	bf00      	nop
1a0005f0:	100000fc 	.word	0x100000fc

1a0005f4 <usbDeviceGamepadCheckCallbackSet>:
// Gamepad function to check in my device for pressed buttons
bool_t usbDeviceGamepadCheckCallbackSet(callBackFuncPtr_t checkCallback){
   bool_t retVal = TRUE;
   
   // Si la funcion de callback recibida no es nula, asignarla para los siguientes updates
   if( checkCallback != NULL ) gamepadCheckFunction = checkCallback;
1a0005f4:	b118      	cbz	r0, 1a0005fe <usbDeviceGamepadCheckCallbackSet+0xa>
1a0005f6:	4a03      	ldr	r2, [pc, #12]	; (1a000604 <usbDeviceGamepadCheckCallbackSet+0x10>)
1a0005f8:	6010      	str	r0, [r2, #0]
   bool_t retVal = TRUE;
1a0005fa:	2001      	movs	r0, #1
1a0005fc:	4770      	bx	lr
   else retVal = FALSE;
1a0005fe:	2000      	movs	r0, #0
   
   return retVal;
1a000600:	4770      	bx	lr
1a000602:	bf00      	nop
1a000604:	1000010c 	.word	0x1000010c

1a000608 <USB_MarcarBoton>:

// Variable auxiliar: bits de pulsadores a enviar
static uint8_t aux_bitsPulsadores = 0x00;

uint8_t USB_MarcarBoton(uint8_t numero){
   if (numero >= CANT_PULSADORES) return 0;
1a000608:	2805      	cmp	r0, #5
1a00060a:	d808      	bhi.n	1a00061e <USB_MarcarBoton+0x16>
   // Los bits correspondientes a cada pulsador están
   // ordenados del menos al más significativo.
   
   // Ejemplo: 31 representa a los primeros 5 pulsadores activos
   
   aux_bitsPulsadores |= (1 << numero);
1a00060c:	2301      	movs	r3, #1
1a00060e:	fa03 f000 	lsl.w	r0, r3, r0
1a000612:	4904      	ldr	r1, [pc, #16]	; (1a000624 <USB_MarcarBoton+0x1c>)
1a000614:	780a      	ldrb	r2, [r1, #0]
1a000616:	4310      	orrs	r0, r2
1a000618:	7008      	strb	r0, [r1, #0]
   return 1;
1a00061a:	4618      	mov	r0, r3
1a00061c:	4770      	bx	lr
   if (numero >= CANT_PULSADORES) return 0;
1a00061e:	2000      	movs	r0, #0
}
1a000620:	4770      	bx	lr
1a000622:	bf00      	nop
1a000624:	10000110 	.word	0x10000110

1a000628 <USB_PresionarBotones>:

void USB_PresionarBotones(){
1a000628:	b510      	push	{r4, lr}
   // Escribir el byte del reporte correspondiente a los pulsadores
   usbDeviceGamepadPress(aux_bitsPulsadores);
1a00062a:	4c03      	ldr	r4, [pc, #12]	; (1a000638 <USB_PresionarBotones+0x10>)
1a00062c:	7820      	ldrb	r0, [r4, #0]
1a00062e:	f7ff ffd7 	bl	1a0005e0 <usbDeviceGamepadPress>
   
   // Una vez enviado, se reinicia para la próxima iteración
   aux_bitsPulsadores = 0x00;
1a000632:	2300      	movs	r3, #0
1a000634:	7023      	strb	r3, [r4, #0]
1a000636:	bd10      	pop	{r4, pc}
1a000638:	10000110 	.word	0x10000110

1a00063c <initialise_monitor_handles>:
1a00063c:	4770      	bx	lr
1a00063e:	Address 0x1a00063e is out of bounds.


1a000640 <Reset_Handler>:
1a000640:	b510      	push	{r4, lr}
1a000642:	b672      	cpsid	i
1a000644:	4b19      	ldr	r3, [pc, #100]	; (1a0006ac <Reset_Handler+0x6c>)
1a000646:	4a1a      	ldr	r2, [pc, #104]	; (1a0006b0 <Reset_Handler+0x70>)
1a000648:	601a      	str	r2, [r3, #0]
1a00064a:	3304      	adds	r3, #4
1a00064c:	4a19      	ldr	r2, [pc, #100]	; (1a0006b4 <Reset_Handler+0x74>)
1a00064e:	601a      	str	r2, [r3, #0]
1a000650:	2300      	movs	r3, #0
1a000652:	e005      	b.n	1a000660 <Reset_Handler+0x20>
1a000654:	4a18      	ldr	r2, [pc, #96]	; (1a0006b8 <Reset_Handler+0x78>)
1a000656:	f04f 31ff 	mov.w	r1, #4294967295
1a00065a:	f842 1023 	str.w	r1, [r2, r3, lsl #2]
1a00065e:	3301      	adds	r3, #1
1a000660:	2b07      	cmp	r3, #7
1a000662:	d9f7      	bls.n	1a000654 <Reset_Handler+0x14>
1a000664:	b662      	cpsie	i
1a000666:	4b15      	ldr	r3, [pc, #84]	; (1a0006bc <Reset_Handler+0x7c>)
1a000668:	e007      	b.n	1a00067a <Reset_Handler+0x3a>
1a00066a:	f103 040c 	add.w	r4, r3, #12
1a00066e:	689a      	ldr	r2, [r3, #8]
1a000670:	6859      	ldr	r1, [r3, #4]
1a000672:	6818      	ldr	r0, [r3, #0]
1a000674:	f7ff fd89 	bl	1a00018a <data_init>
1a000678:	4623      	mov	r3, r4
1a00067a:	4a11      	ldr	r2, [pc, #68]	; (1a0006c0 <Reset_Handler+0x80>)
1a00067c:	4293      	cmp	r3, r2
1a00067e:	d3f4      	bcc.n	1a00066a <Reset_Handler+0x2a>
1a000680:	e006      	b.n	1a000690 <Reset_Handler+0x50>
1a000682:	461c      	mov	r4, r3
1a000684:	6859      	ldr	r1, [r3, #4]
1a000686:	f854 0b08 	ldr.w	r0, [r4], #8
1a00068a:	f7ff fd8d 	bl	1a0001a8 <bss_init>
1a00068e:	4623      	mov	r3, r4
1a000690:	4a0c      	ldr	r2, [pc, #48]	; (1a0006c4 <Reset_Handler+0x84>)
1a000692:	4293      	cmp	r3, r2
1a000694:	d3f5      	bcc.n	1a000682 <Reset_Handler+0x42>
1a000696:	f001 f86b 	bl	1a001770 <SystemInit>
1a00069a:	f002 f9c3 	bl	1a002a24 <__libc_init_array>
1a00069e:	f7ff ffcd 	bl	1a00063c <initialise_monitor_handles>
1a0006a2:	f7ff fe73 	bl	1a00038c <main>
1a0006a6:	bf30      	wfi
1a0006a8:	e7fd      	b.n	1a0006a6 <Reset_Handler+0x66>
1a0006aa:	bf00      	nop
1a0006ac:	40053100 	.word	0x40053100
1a0006b0:	10df1000 	.word	0x10df1000
1a0006b4:	01dff7ff 	.word	0x01dff7ff
1a0006b8:	e000e280 	.word	0xe000e280
1a0006bc:	1a000114 	.word	0x1a000114
1a0006c0:	1a000150 	.word	0x1a000150
1a0006c4:	1a000178 	.word	0x1a000178

1a0006c8 <_fini>:
1a0006c8:	4770      	bx	lr

1a0006ca <_init>:
1a0006ca:	4770      	bx	lr

1a0006cc <_close_r>:
1a0006cc:	2309      	movs	r3, #9
1a0006ce:	6003      	str	r3, [r0, #0]
1a0006d0:	f04f 30ff 	mov.w	r0, #4294967295
1a0006d4:	4770      	bx	lr

1a0006d6 <_fstat_r>:
1a0006d6:	2358      	movs	r3, #88	; 0x58
1a0006d8:	6003      	str	r3, [r0, #0]
1a0006da:	f04f 30ff 	mov.w	r0, #4294967295
1a0006de:	4770      	bx	lr

1a0006e0 <_isatty_r>:
1a0006e0:	2902      	cmp	r1, #2
1a0006e2:	d904      	bls.n	1a0006ee <_isatty_r+0xe>
1a0006e4:	2309      	movs	r3, #9
1a0006e6:	6003      	str	r3, [r0, #0]
1a0006e8:	f04f 30ff 	mov.w	r0, #4294967295
1a0006ec:	4770      	bx	lr
1a0006ee:	2001      	movs	r0, #1
1a0006f0:	4770      	bx	lr

1a0006f2 <_lseek_r>:
1a0006f2:	2358      	movs	r3, #88	; 0x58
1a0006f4:	6003      	str	r3, [r0, #0]
1a0006f6:	f04f 30ff 	mov.w	r0, #4294967295
1a0006fa:	4770      	bx	lr

1a0006fc <_read_r>:
1a0006fc:	2902      	cmp	r1, #2
1a0006fe:	d81f      	bhi.n	1a000740 <_read_r+0x44>
1a000700:	e92d 41f0 	stmdb	sp!, {r4, r5, r6, r7, r8, lr}
1a000704:	461d      	mov	r5, r3
1a000706:	4617      	mov	r7, r2
1a000708:	4606      	mov	r6, r0
1a00070a:	2400      	movs	r4, #0
1a00070c:	42ac      	cmp	r4, r5
1a00070e:	d211      	bcs.n	1a000734 <_read_r+0x38>
1a000710:	f000 f9bb 	bl	1a000a8a <__stdio_getchar>
1a000714:	f1b0 3fff 	cmp.w	r0, #4294967295
1a000718:	d0f8      	beq.n	1a00070c <_read_r+0x10>
1a00071a:	f104 0801 	add.w	r8, r4, #1
1a00071e:	5538      	strb	r0, [r7, r4]
1a000720:	280d      	cmp	r0, #13
1a000722:	d003      	beq.n	1a00072c <_read_r+0x30>
1a000724:	280a      	cmp	r0, #10
1a000726:	d001      	beq.n	1a00072c <_read_r+0x30>
1a000728:	4644      	mov	r4, r8
1a00072a:	e7ef      	b.n	1a00070c <_read_r+0x10>
1a00072c:	f000 f9ad 	bl	1a000a8a <__stdio_getchar>
1a000730:	4640      	mov	r0, r8
1a000732:	e003      	b.n	1a00073c <_read_r+0x40>
1a000734:	2313      	movs	r3, #19
1a000736:	6033      	str	r3, [r6, #0]
1a000738:	f04f 30ff 	mov.w	r0, #4294967295
1a00073c:	e8bd 81f0 	ldmia.w	sp!, {r4, r5, r6, r7, r8, pc}
1a000740:	2313      	movs	r3, #19
1a000742:	6003      	str	r3, [r0, #0]
1a000744:	f04f 30ff 	mov.w	r0, #4294967295
1a000748:	4770      	bx	lr

1a00074a <_write_r>:
1a00074a:	2902      	cmp	r1, #2
1a00074c:	d80c      	bhi.n	1a000768 <_write_r+0x1e>
1a00074e:	b570      	push	{r4, r5, r6, lr}
1a000750:	461d      	mov	r5, r3
1a000752:	4616      	mov	r6, r2
1a000754:	2400      	movs	r4, #0
1a000756:	42ac      	cmp	r4, r5
1a000758:	d204      	bcs.n	1a000764 <_write_r+0x1a>
1a00075a:	5d30      	ldrb	r0, [r6, r4]
1a00075c:	f000 f990 	bl	1a000a80 <__stdio_putchar>
1a000760:	3401      	adds	r4, #1
1a000762:	e7f8      	b.n	1a000756 <_write_r+0xc>
1a000764:	4628      	mov	r0, r5
1a000766:	bd70      	pop	{r4, r5, r6, pc}
1a000768:	2313      	movs	r3, #19
1a00076a:	6003      	str	r3, [r0, #0]
1a00076c:	f04f 30ff 	mov.w	r0, #4294967295
1a000770:	4770      	bx	lr
1a000772:	Address 0x1a000772 is out of bounds.


1a000774 <_sbrk_r>:
1a000774:	4b05      	ldr	r3, [pc, #20]	; (1a00078c <_sbrk_r+0x18>)
1a000776:	681b      	ldr	r3, [r3, #0]
1a000778:	b123      	cbz	r3, 1a000784 <_sbrk_r+0x10>
1a00077a:	4b04      	ldr	r3, [pc, #16]	; (1a00078c <_sbrk_r+0x18>)
1a00077c:	6818      	ldr	r0, [r3, #0]
1a00077e:	4401      	add	r1, r0
1a000780:	6019      	str	r1, [r3, #0]
1a000782:	4770      	bx	lr
1a000784:	4b01      	ldr	r3, [pc, #4]	; (1a00078c <_sbrk_r+0x18>)
1a000786:	4a02      	ldr	r2, [pc, #8]	; (1a000790 <_sbrk_r+0x1c>)
1a000788:	601a      	str	r2, [r3, #0]
1a00078a:	e7f6      	b.n	1a00077a <_sbrk_r+0x6>
1a00078c:	10000114 	.word	0x10000114
1a000790:	1000018c 	.word	0x1000018c

1a000794 <Board_SetupMuxing>:
1a000794:	2300      	movs	r3, #0
1a000796:	2b1c      	cmp	r3, #28
1a000798:	d812      	bhi.n	1a0007c0 <Board_SetupMuxing+0x2c>
1a00079a:	b410      	push	{r4}
1a00079c:	4a09      	ldr	r2, [pc, #36]	; (1a0007c4 <Board_SetupMuxing+0x30>)
1a00079e:	eb02 0183 	add.w	r1, r2, r3, lsl #2
1a0007a2:	f812 4023 	ldrb.w	r4, [r2, r3, lsl #2]
1a0007a6:	784a      	ldrb	r2, [r1, #1]
1a0007a8:	8848      	ldrh	r0, [r1, #2]
1a0007aa:	eb02 1244 	add.w	r2, r2, r4, lsl #5
1a0007ae:	4906      	ldr	r1, [pc, #24]	; (1a0007c8 <Board_SetupMuxing+0x34>)
1a0007b0:	f841 0022 	str.w	r0, [r1, r2, lsl #2]
1a0007b4:	3301      	adds	r3, #1
1a0007b6:	2b1c      	cmp	r3, #28
1a0007b8:	d9f0      	bls.n	1a00079c <Board_SetupMuxing+0x8>
1a0007ba:	f85d 4b04 	ldr.w	r4, [sp], #4
1a0007be:	4770      	bx	lr
1a0007c0:	4770      	bx	lr
1a0007c2:	bf00      	nop
1a0007c4:	1a0030dc 	.word	0x1a0030dc
1a0007c8:	40086000 	.word	0x40086000

1a0007cc <Board_SetupClocking>:
1a0007cc:	b510      	push	{r4, lr}
1a0007ce:	4a17      	ldr	r2, [pc, #92]	; (1a00082c <Board_SetupClocking+0x60>)
1a0007d0:	f8d2 3120 	ldr.w	r3, [r2, #288]	; 0x120
1a0007d4:	f423 4370 	bic.w	r3, r3, #61440	; 0xf000
1a0007d8:	f443 4310 	orr.w	r3, r3, #36864	; 0x9000
1a0007dc:	f8c2 3120 	str.w	r3, [r2, #288]	; 0x120
1a0007e0:	f8d2 3124 	ldr.w	r3, [r2, #292]	; 0x124
1a0007e4:	f423 4370 	bic.w	r3, r3, #61440	; 0xf000
1a0007e8:	f443 4310 	orr.w	r3, r3, #36864	; 0x9000
1a0007ec:	f8c2 3124 	str.w	r3, [r2, #292]	; 0x124
1a0007f0:	2201      	movs	r2, #1
1a0007f2:	490f      	ldr	r1, [pc, #60]	; (1a000830 <Board_SetupClocking+0x64>)
1a0007f4:	2006      	movs	r0, #6
1a0007f6:	f000 fad1 	bl	1a000d9c <Chip_SetupCoreClock>
1a0007fa:	2400      	movs	r4, #0
1a0007fc:	b14c      	cbz	r4, 1a000812 <Board_SetupClocking+0x46>
1a0007fe:	4b0b      	ldr	r3, [pc, #44]	; (1a00082c <Board_SetupClocking+0x60>)
1a000800:	685a      	ldr	r2, [r3, #4]
1a000802:	f022 020c 	bic.w	r2, r2, #12
1a000806:	605a      	str	r2, [r3, #4]
1a000808:	685a      	ldr	r2, [r3, #4]
1a00080a:	f042 0203 	orr.w	r2, r2, #3
1a00080e:	605a      	str	r2, [r3, #4]
1a000810:	bd10      	pop	{r4, pc}
1a000812:	4808      	ldr	r0, [pc, #32]	; (1a000834 <Board_SetupClocking+0x68>)
1a000814:	eb00 0184 	add.w	r1, r0, r4, lsl #2
1a000818:	2301      	movs	r3, #1
1a00081a:	788a      	ldrb	r2, [r1, #2]
1a00081c:	7849      	ldrb	r1, [r1, #1]
1a00081e:	f810 0024 	ldrb.w	r0, [r0, r4, lsl #2]
1a000822:	f000 fdc7 	bl	1a0013b4 <Chip_Clock_SetBaseClock>
1a000826:	3401      	adds	r4, #1
1a000828:	e7e8      	b.n	1a0007fc <Board_SetupClocking+0x30>
1a00082a:	bf00      	nop
1a00082c:	40043000 	.word	0x40043000
1a000830:	0c28cb00 	.word	0x0c28cb00
1a000834:	1a0030d8 	.word	0x1a0030d8

1a000838 <Board_SystemInit>:
1a000838:	b508      	push	{r3, lr}
1a00083a:	f7ff ffab 	bl	1a000794 <Board_SetupMuxing>
1a00083e:	f7ff ffc5 	bl	1a0007cc <Board_SetupClocking>
1a000842:	bd08      	pop	{r3, pc}

1a000844 <Board_LED_Init>:
1a000844:	2200      	movs	r2, #0
1a000846:	2a05      	cmp	r2, #5
1a000848:	d819      	bhi.n	1a00087e <Board_LED_Init+0x3a>
1a00084a:	b470      	push	{r4, r5, r6}
1a00084c:	490c      	ldr	r1, [pc, #48]	; (1a000880 <Board_LED_Init+0x3c>)
1a00084e:	f811 5012 	ldrb.w	r5, [r1, r2, lsl #1]
1a000852:	eb01 0142 	add.w	r1, r1, r2, lsl #1
1a000856:	784c      	ldrb	r4, [r1, #1]
1a000858:	4b0a      	ldr	r3, [pc, #40]	; (1a000884 <Board_LED_Init+0x40>)
1a00085a:	f505 6600 	add.w	r6, r5, #2048	; 0x800
1a00085e:	f853 1026 	ldr.w	r1, [r3, r6, lsl #2]
1a000862:	2001      	movs	r0, #1
1a000864:	40a0      	lsls	r0, r4
1a000866:	4301      	orrs	r1, r0
1a000868:	f843 1026 	str.w	r1, [r3, r6, lsl #2]
1a00086c:	eb03 1345 	add.w	r3, r3, r5, lsl #5
1a000870:	2100      	movs	r1, #0
1a000872:	5519      	strb	r1, [r3, r4]
1a000874:	3201      	adds	r2, #1
1a000876:	2a05      	cmp	r2, #5
1a000878:	d9e8      	bls.n	1a00084c <Board_LED_Init+0x8>
1a00087a:	bc70      	pop	{r4, r5, r6}
1a00087c:	4770      	bx	lr
1a00087e:	4770      	bx	lr
1a000880:	1a00315c 	.word	0x1a00315c
1a000884:	400f4000 	.word	0x400f4000

1a000888 <Board_TEC_Init>:
1a000888:	2300      	movs	r3, #0
1a00088a:	2b03      	cmp	r3, #3
1a00088c:	d816      	bhi.n	1a0008bc <Board_TEC_Init+0x34>
1a00088e:	b430      	push	{r4, r5}
1a000890:	490b      	ldr	r1, [pc, #44]	; (1a0008c0 <Board_TEC_Init+0x38>)
1a000892:	f811 2013 	ldrb.w	r2, [r1, r3, lsl #1]
1a000896:	eb01 0143 	add.w	r1, r1, r3, lsl #1
1a00089a:	784d      	ldrb	r5, [r1, #1]
1a00089c:	4c09      	ldr	r4, [pc, #36]	; (1a0008c4 <Board_TEC_Init+0x3c>)
1a00089e:	f502 6200 	add.w	r2, r2, #2048	; 0x800
1a0008a2:	f854 1022 	ldr.w	r1, [r4, r2, lsl #2]
1a0008a6:	2001      	movs	r0, #1
1a0008a8:	40a8      	lsls	r0, r5
1a0008aa:	ea21 0100 	bic.w	r1, r1, r0
1a0008ae:	f844 1022 	str.w	r1, [r4, r2, lsl #2]
1a0008b2:	3301      	adds	r3, #1
1a0008b4:	2b03      	cmp	r3, #3
1a0008b6:	d9eb      	bls.n	1a000890 <Board_TEC_Init+0x8>
1a0008b8:	bc30      	pop	{r4, r5}
1a0008ba:	4770      	bx	lr
1a0008bc:	4770      	bx	lr
1a0008be:	bf00      	nop
1a0008c0:	1a003154 	.word	0x1a003154
1a0008c4:	400f4000 	.word	0x400f4000

1a0008c8 <Board_GPIO_Init>:
1a0008c8:	2300      	movs	r3, #0
1a0008ca:	2b08      	cmp	r3, #8
1a0008cc:	d816      	bhi.n	1a0008fc <Board_GPIO_Init+0x34>
1a0008ce:	b430      	push	{r4, r5}
1a0008d0:	490b      	ldr	r1, [pc, #44]	; (1a000900 <Board_GPIO_Init+0x38>)
1a0008d2:	f811 2013 	ldrb.w	r2, [r1, r3, lsl #1]
1a0008d6:	eb01 0143 	add.w	r1, r1, r3, lsl #1
1a0008da:	784d      	ldrb	r5, [r1, #1]
1a0008dc:	4c09      	ldr	r4, [pc, #36]	; (1a000904 <Board_GPIO_Init+0x3c>)
1a0008de:	f502 6200 	add.w	r2, r2, #2048	; 0x800
1a0008e2:	f854 1022 	ldr.w	r1, [r4, r2, lsl #2]
1a0008e6:	2001      	movs	r0, #1
1a0008e8:	40a8      	lsls	r0, r5
1a0008ea:	ea21 0100 	bic.w	r1, r1, r0
1a0008ee:	f844 1022 	str.w	r1, [r4, r2, lsl #2]
1a0008f2:	3301      	adds	r3, #1
1a0008f4:	2b08      	cmp	r3, #8
1a0008f6:	d9eb      	bls.n	1a0008d0 <Board_GPIO_Init+0x8>
1a0008f8:	bc30      	pop	{r4, r5}
1a0008fa:	4770      	bx	lr
1a0008fc:	4770      	bx	lr
1a0008fe:	bf00      	nop
1a000900:	1a003168 	.word	0x1a003168
1a000904:	400f4000 	.word	0x400f4000

1a000908 <Board_ADC_Init>:
1a000908:	b510      	push	{r4, lr}
1a00090a:	b082      	sub	sp, #8
1a00090c:	4c08      	ldr	r4, [pc, #32]	; (1a000930 <Board_ADC_Init+0x28>)
1a00090e:	4669      	mov	r1, sp
1a000910:	4620      	mov	r0, r4
1a000912:	f000 f993 	bl	1a000c3c <Chip_ADC_Init>
1a000916:	4a07      	ldr	r2, [pc, #28]	; (1a000934 <Board_ADC_Init+0x2c>)
1a000918:	4669      	mov	r1, sp
1a00091a:	4620      	mov	r0, r4
1a00091c:	f000 f9f9 	bl	1a000d12 <Chip_ADC_SetSampleRate>
1a000920:	2200      	movs	r2, #0
1a000922:	4669      	mov	r1, sp
1a000924:	4620      	mov	r0, r4
1a000926:	f000 fa0d 	bl	1a000d44 <Chip_ADC_SetResolution>
1a00092a:	b002      	add	sp, #8
1a00092c:	bd10      	pop	{r4, pc}
1a00092e:	bf00      	nop
1a000930:	400e3000 	.word	0x400e3000
1a000934:	00061a80 	.word	0x00061a80

1a000938 <Board_SPI_Init>:
1a000938:	b510      	push	{r4, lr}
1a00093a:	4c0b      	ldr	r4, [pc, #44]	; (1a000968 <Board_SPI_Init+0x30>)
1a00093c:	4620      	mov	r0, r4
1a00093e:	f000 f8eb 	bl	1a000b18 <Chip_SSP_Init>
1a000942:	6863      	ldr	r3, [r4, #4]
1a000944:	f023 0304 	bic.w	r3, r3, #4
1a000948:	6063      	str	r3, [r4, #4]
1a00094a:	6823      	ldr	r3, [r4, #0]
1a00094c:	f023 03ff 	bic.w	r3, r3, #255	; 0xff
1a000950:	f043 0307 	orr.w	r3, r3, #7
1a000954:	6023      	str	r3, [r4, #0]
1a000956:	4905      	ldr	r1, [pc, #20]	; (1a00096c <Board_SPI_Init+0x34>)
1a000958:	4620      	mov	r0, r4
1a00095a:	f000 f8be 	bl	1a000ada <Chip_SSP_SetBitRate>
1a00095e:	6863      	ldr	r3, [r4, #4]
1a000960:	f043 0302 	orr.w	r3, r3, #2
1a000964:	6063      	str	r3, [r4, #4]
1a000966:	bd10      	pop	{r4, pc}
1a000968:	400c5000 	.word	0x400c5000
1a00096c:	000186a0 	.word	0x000186a0

1a000970 <Board_I2C_Init>:
1a000970:	b508      	push	{r3, lr}
1a000972:	2000      	movs	r0, #0
1a000974:	f000 f8fc 	bl	1a000b70 <Chip_I2C_Init>
1a000978:	4b04      	ldr	r3, [pc, #16]	; (1a00098c <Board_I2C_Init+0x1c>)
1a00097a:	f640 0208 	movw	r2, #2056	; 0x808
1a00097e:	f8c3 2c84 	str.w	r2, [r3, #3204]	; 0xc84
1a000982:	4903      	ldr	r1, [pc, #12]	; (1a000990 <Board_I2C_Init+0x20>)
1a000984:	2000      	movs	r0, #0
1a000986:	f000 f905 	bl	1a000b94 <Chip_I2C_SetClockRate>
1a00098a:	bd08      	pop	{r3, pc}
1a00098c:	40086000 	.word	0x40086000
1a000990:	000f4240 	.word	0x000f4240

1a000994 <Board_Debug_Init>:
1a000994:	b510      	push	{r4, lr}
1a000996:	4c07      	ldr	r4, [pc, #28]	; (1a0009b4 <Board_Debug_Init+0x20>)
1a000998:	4620      	mov	r0, r4
1a00099a:	f000 fe1d 	bl	1a0015d8 <Chip_UART_Init>
1a00099e:	f44f 31e1 	mov.w	r1, #115200	; 0x1c200
1a0009a2:	4620      	mov	r0, r4
1a0009a4:	f000 fe76 	bl	1a001694 <Chip_UART_SetBaudFDR>
1a0009a8:	2303      	movs	r3, #3
1a0009aa:	60e3      	str	r3, [r4, #12]
1a0009ac:	2301      	movs	r3, #1
1a0009ae:	65e3      	str	r3, [r4, #92]	; 0x5c
1a0009b0:	bd10      	pop	{r4, pc}
1a0009b2:	bf00      	nop
1a0009b4:	400c1000 	.word	0x400c1000

1a0009b8 <Board_UARTPutChar>:
1a0009b8:	4b03      	ldr	r3, [pc, #12]	; (1a0009c8 <Board_UARTPutChar+0x10>)
1a0009ba:	695b      	ldr	r3, [r3, #20]
1a0009bc:	f013 0f20 	tst.w	r3, #32
1a0009c0:	d0fa      	beq.n	1a0009b8 <Board_UARTPutChar>
1a0009c2:	4b01      	ldr	r3, [pc, #4]	; (1a0009c8 <Board_UARTPutChar+0x10>)
1a0009c4:	6018      	str	r0, [r3, #0]
1a0009c6:	4770      	bx	lr
1a0009c8:	400c1000 	.word	0x400c1000

1a0009cc <Board_UARTGetChar>:
1a0009cc:	4b05      	ldr	r3, [pc, #20]	; (1a0009e4 <Board_UARTGetChar+0x18>)
1a0009ce:	695b      	ldr	r3, [r3, #20]
1a0009d0:	f013 0f01 	tst.w	r3, #1
1a0009d4:	d003      	beq.n	1a0009de <Board_UARTGetChar+0x12>
1a0009d6:	4b03      	ldr	r3, [pc, #12]	; (1a0009e4 <Board_UARTGetChar+0x18>)
1a0009d8:	6818      	ldr	r0, [r3, #0]
1a0009da:	b2c0      	uxtb	r0, r0
1a0009dc:	4770      	bx	lr
1a0009de:	f04f 30ff 	mov.w	r0, #4294967295
1a0009e2:	4770      	bx	lr
1a0009e4:	400c1000 	.word	0x400c1000

1a0009e8 <Board_LED_Set>:
1a0009e8:	2805      	cmp	r0, #5
1a0009ea:	d80b      	bhi.n	1a000a04 <Board_LED_Set+0x1c>
1a0009ec:	4a06      	ldr	r2, [pc, #24]	; (1a000a08 <Board_LED_Set+0x20>)
1a0009ee:	f812 3010 	ldrb.w	r3, [r2, r0, lsl #1]
1a0009f2:	eb02 0040 	add.w	r0, r2, r0, lsl #1
1a0009f6:	7842      	ldrb	r2, [r0, #1]
1a0009f8:	015b      	lsls	r3, r3, #5
1a0009fa:	f103 2340 	add.w	r3, r3, #1073758208	; 0x40004000
1a0009fe:	f503 2370 	add.w	r3, r3, #983040	; 0xf0000
1a000a02:	5499      	strb	r1, [r3, r2]
1a000a04:	4770      	bx	lr
1a000a06:	bf00      	nop
1a000a08:	1a00315c 	.word	0x1a00315c

1a000a0c <Board_LED_Test>:
1a000a0c:	2805      	cmp	r0, #5
1a000a0e:	d80f      	bhi.n	1a000a30 <Board_LED_Test+0x24>
1a000a10:	4a08      	ldr	r2, [pc, #32]	; (1a000a34 <Board_LED_Test+0x28>)
1a000a12:	f812 3010 	ldrb.w	r3, [r2, r0, lsl #1]
1a000a16:	eb02 0040 	add.w	r0, r2, r0, lsl #1
1a000a1a:	7842      	ldrb	r2, [r0, #1]
1a000a1c:	015b      	lsls	r3, r3, #5
1a000a1e:	f103 2340 	add.w	r3, r3, #1073758208	; 0x40004000
1a000a22:	f503 2370 	add.w	r3, r3, #983040	; 0xf0000
1a000a26:	5c98      	ldrb	r0, [r3, r2]
1a000a28:	3000      	adds	r0, #0
1a000a2a:	bf18      	it	ne
1a000a2c:	2001      	movne	r0, #1
1a000a2e:	4770      	bx	lr
1a000a30:	2000      	movs	r0, #0
1a000a32:	4770      	bx	lr
1a000a34:	1a00315c 	.word	0x1a00315c

1a000a38 <Board_LED_Toggle>:
1a000a38:	b510      	push	{r4, lr}
1a000a3a:	4604      	mov	r4, r0
1a000a3c:	f7ff ffe6 	bl	1a000a0c <Board_LED_Test>
1a000a40:	f080 0101 	eor.w	r1, r0, #1
1a000a44:	b2c9      	uxtb	r1, r1
1a000a46:	4620      	mov	r0, r4
1a000a48:	f7ff ffce 	bl	1a0009e8 <Board_LED_Set>
1a000a4c:	bd10      	pop	{r4, pc}
1a000a4e:	Address 0x1a000a4e is out of bounds.


1a000a50 <Board_Init>:
1a000a50:	b508      	push	{r3, lr}
1a000a52:	f7ff ff9f 	bl	1a000994 <Board_Debug_Init>
1a000a56:	4809      	ldr	r0, [pc, #36]	; (1a000a7c <Board_Init+0x2c>)
1a000a58:	f000 f8b8 	bl	1a000bcc <Chip_GPIO_Init>
1a000a5c:	f7ff ff34 	bl	1a0008c8 <Board_GPIO_Init>
1a000a60:	f7ff ff52 	bl	1a000908 <Board_ADC_Init>
1a000a64:	f7ff ff68 	bl	1a000938 <Board_SPI_Init>
1a000a68:	f7ff ff82 	bl	1a000970 <Board_I2C_Init>
1a000a6c:	f7ff feea 	bl	1a000844 <Board_LED_Init>
1a000a70:	f7ff ff0a 	bl	1a000888 <Board_TEC_Init>
1a000a74:	f000 fa72 	bl	1a000f5c <SystemCoreClockUpdate>
1a000a78:	bd08      	pop	{r3, pc}
1a000a7a:	bf00      	nop
1a000a7c:	400f4000 	.word	0x400f4000

1a000a80 <__stdio_putchar>:
1a000a80:	b508      	push	{r3, lr}
1a000a82:	b2c0      	uxtb	r0, r0
1a000a84:	f7ff ff98 	bl	1a0009b8 <Board_UARTPutChar>
1a000a88:	bd08      	pop	{r3, pc}

1a000a8a <__stdio_getchar>:
1a000a8a:	b508      	push	{r3, lr}
1a000a8c:	f7ff ff9e 	bl	1a0009cc <Board_UARTGetChar>
1a000a90:	bd08      	pop	{r3, pc}

1a000a92 <__stdio_init>:
1a000a92:	b508      	push	{r3, lr}
1a000a94:	f7ff ff7e 	bl	1a000994 <Board_Debug_Init>
1a000a98:	bd08      	pop	{r3, pc}
1a000a9a:	Address 0x1a000a9a is out of bounds.


1a000a9c <Chip_SSP_GetClockIndex>:
1a000a9c:	4b03      	ldr	r3, [pc, #12]	; (1a000aac <Chip_SSP_GetClockIndex+0x10>)
1a000a9e:	4298      	cmp	r0, r3
1a000aa0:	d001      	beq.n	1a000aa6 <Chip_SSP_GetClockIndex+0xa>
1a000aa2:	2083      	movs	r0, #131	; 0x83
1a000aa4:	4770      	bx	lr
1a000aa6:	20a5      	movs	r0, #165	; 0xa5
1a000aa8:	4770      	bx	lr
1a000aaa:	bf00      	nop
1a000aac:	400c5000 	.word	0x400c5000

1a000ab0 <Chip_SSP_GetPeriphClockIndex>:
1a000ab0:	4b04      	ldr	r3, [pc, #16]	; (1a000ac4 <Chip_SSP_GetPeriphClockIndex+0x14>)
1a000ab2:	4298      	cmp	r0, r3
1a000ab4:	d002      	beq.n	1a000abc <Chip_SSP_GetPeriphClockIndex+0xc>
1a000ab6:	f240 2002 	movw	r0, #514	; 0x202
1a000aba:	4770      	bx	lr
1a000abc:	f44f 70f1 	mov.w	r0, #482	; 0x1e2
1a000ac0:	4770      	bx	lr
1a000ac2:	bf00      	nop
1a000ac4:	400c5000 	.word	0x400c5000

1a000ac8 <Chip_SSP_SetClockRate>:
1a000ac8:	6803      	ldr	r3, [r0, #0]
1a000aca:	f423 437f 	bic.w	r3, r3, #65280	; 0xff00
1a000ace:	0209      	lsls	r1, r1, #8
1a000ad0:	b289      	uxth	r1, r1
1a000ad2:	4319      	orrs	r1, r3
1a000ad4:	6001      	str	r1, [r0, #0]
1a000ad6:	6102      	str	r2, [r0, #16]
1a000ad8:	4770      	bx	lr

1a000ada <Chip_SSP_SetBitRate>:
1a000ada:	b570      	push	{r4, r5, r6, lr}
1a000adc:	4606      	mov	r6, r0
1a000ade:	460d      	mov	r5, r1
1a000ae0:	f7ff ffe6 	bl	1a000ab0 <Chip_SSP_GetPeriphClockIndex>
1a000ae4:	f000 fd0a 	bl	1a0014fc <Chip_Clock_GetRate>
1a000ae8:	2202      	movs	r2, #2
1a000aea:	f04f 33ff 	mov.w	r3, #4294967295
1a000aee:	2100      	movs	r1, #0
1a000af0:	e000      	b.n	1a000af4 <Chip_SSP_SetBitRate+0x1a>
1a000af2:	4621      	mov	r1, r4
1a000af4:	42ab      	cmp	r3, r5
1a000af6:	d90b      	bls.n	1a000b10 <Chip_SSP_SetBitRate+0x36>
1a000af8:	1c4c      	adds	r4, r1, #1
1a000afa:	fb02 f304 	mul.w	r3, r2, r4
1a000afe:	fbb0 f3f3 	udiv	r3, r0, r3
1a000b02:	429d      	cmp	r5, r3
1a000b04:	d2f6      	bcs.n	1a000af4 <Chip_SSP_SetBitRate+0x1a>
1a000b06:	2cff      	cmp	r4, #255	; 0xff
1a000b08:	d9f3      	bls.n	1a000af2 <Chip_SSP_SetBitRate+0x18>
1a000b0a:	3202      	adds	r2, #2
1a000b0c:	2100      	movs	r1, #0
1a000b0e:	e7f1      	b.n	1a000af4 <Chip_SSP_SetBitRate+0x1a>
1a000b10:	4630      	mov	r0, r6
1a000b12:	f7ff ffd9 	bl	1a000ac8 <Chip_SSP_SetClockRate>
1a000b16:	bd70      	pop	{r4, r5, r6, pc}

1a000b18 <Chip_SSP_Init>:
1a000b18:	b510      	push	{r4, lr}
1a000b1a:	4604      	mov	r4, r0
1a000b1c:	f7ff ffbe 	bl	1a000a9c <Chip_SSP_GetClockIndex>
1a000b20:	f000 fcb8 	bl	1a001494 <Chip_Clock_Enable>
1a000b24:	4620      	mov	r0, r4
1a000b26:	f7ff ffc3 	bl	1a000ab0 <Chip_SSP_GetPeriphClockIndex>
1a000b2a:	f000 fcb3 	bl	1a001494 <Chip_Clock_Enable>
1a000b2e:	6863      	ldr	r3, [r4, #4]
1a000b30:	f023 0304 	bic.w	r3, r3, #4
1a000b34:	6063      	str	r3, [r4, #4]
1a000b36:	6823      	ldr	r3, [r4, #0]
1a000b38:	f023 03ff 	bic.w	r3, r3, #255	; 0xff
1a000b3c:	f043 0307 	orr.w	r3, r3, #7
1a000b40:	6023      	str	r3, [r4, #0]
1a000b42:	4902      	ldr	r1, [pc, #8]	; (1a000b4c <Chip_SSP_Init+0x34>)
1a000b44:	4620      	mov	r0, r4
1a000b46:	f7ff ffc8 	bl	1a000ada <Chip_SSP_SetBitRate>
1a000b4a:	bd10      	pop	{r4, pc}
1a000b4c:	000186a0 	.word	0x000186a0

1a000b50 <Chip_I2C_EventHandler>:
1a000b50:	2901      	cmp	r1, #1
1a000b52:	d109      	bne.n	1a000b68 <Chip_I2C_EventHandler+0x18>
1a000b54:	ebc0 00c0 	rsb	r0, r0, r0, lsl #3
1a000b58:	0082      	lsls	r2, r0, #2
1a000b5a:	4b04      	ldr	r3, [pc, #16]	; (1a000b6c <Chip_I2C_EventHandler+0x1c>)
1a000b5c:	4413      	add	r3, r2
1a000b5e:	691a      	ldr	r2, [r3, #16]
1a000b60:	7d13      	ldrb	r3, [r2, #20]
1a000b62:	b2db      	uxtb	r3, r3
1a000b64:	2b04      	cmp	r3, #4
1a000b66:	d0fb      	beq.n	1a000b60 <Chip_I2C_EventHandler+0x10>
1a000b68:	4770      	bx	lr
1a000b6a:	bf00      	nop
1a000b6c:	10000048 	.word	0x10000048

1a000b70 <Chip_I2C_Init>:
1a000b70:	b570      	push	{r4, r5, r6, lr}
1a000b72:	4605      	mov	r5, r0
1a000b74:	4e06      	ldr	r6, [pc, #24]	; (1a000b90 <Chip_I2C_Init+0x20>)
1a000b76:	00c4      	lsls	r4, r0, #3
1a000b78:	1a22      	subs	r2, r4, r0
1a000b7a:	0093      	lsls	r3, r2, #2
1a000b7c:	4433      	add	r3, r6
1a000b7e:	8898      	ldrh	r0, [r3, #4]
1a000b80:	f000 fc88 	bl	1a001494 <Chip_Clock_Enable>
1a000b84:	1b64      	subs	r4, r4, r5
1a000b86:	00a3      	lsls	r3, r4, #2
1a000b88:	58f3      	ldr	r3, [r6, r3]
1a000b8a:	226c      	movs	r2, #108	; 0x6c
1a000b8c:	619a      	str	r2, [r3, #24]
1a000b8e:	bd70      	pop	{r4, r5, r6, pc}
1a000b90:	10000048 	.word	0x10000048

1a000b94 <Chip_I2C_SetClockRate>:
1a000b94:	e92d 41f0 	stmdb	sp!, {r4, r5, r6, r7, r8, lr}
1a000b98:	460c      	mov	r4, r1
1a000b9a:	4e0b      	ldr	r6, [pc, #44]	; (1a000bc8 <Chip_I2C_SetClockRate+0x34>)
1a000b9c:	00c5      	lsls	r5, r0, #3
1a000b9e:	1a2b      	subs	r3, r5, r0
1a000ba0:	ea4f 0883 	mov.w	r8, r3, lsl #2
1a000ba4:	eb06 0308 	add.w	r3, r6, r8
1a000ba8:	8898      	ldrh	r0, [r3, #4]
1a000baa:	f000 fca7 	bl	1a0014fc <Chip_Clock_GetRate>
1a000bae:	fbb0 f0f4 	udiv	r0, r0, r4
1a000bb2:	f856 3008 	ldr.w	r3, [r6, r8]
1a000bb6:	0842      	lsrs	r2, r0, #1
1a000bb8:	611a      	str	r2, [r3, #16]
1a000bba:	f856 3008 	ldr.w	r3, [r6, r8]
1a000bbe:	691a      	ldr	r2, [r3, #16]
1a000bc0:	1a80      	subs	r0, r0, r2
1a000bc2:	6158      	str	r0, [r3, #20]
1a000bc4:	e8bd 81f0 	ldmia.w	sp!, {r4, r5, r6, r7, r8, pc}
1a000bc8:	10000048 	.word	0x10000048

1a000bcc <Chip_GPIO_Init>:
1a000bcc:	4770      	bx	lr
1a000bce:	Address 0x1a000bce is out of bounds.


1a000bd0 <Chip_ADC_GetClockIndex>:
1a000bd0:	4b03      	ldr	r3, [pc, #12]	; (1a000be0 <Chip_ADC_GetClockIndex+0x10>)
1a000bd2:	4298      	cmp	r0, r3
1a000bd4:	d001      	beq.n	1a000bda <Chip_ADC_GetClockIndex+0xa>
1a000bd6:	2003      	movs	r0, #3
1a000bd8:	4770      	bx	lr
1a000bda:	2004      	movs	r0, #4
1a000bdc:	4770      	bx	lr
1a000bde:	bf00      	nop
1a000be0:	400e4000 	.word	0x400e4000

1a000be4 <getClkDiv>:
1a000be4:	b570      	push	{r4, r5, r6, lr}
1a000be6:	460d      	mov	r5, r1
1a000be8:	4614      	mov	r4, r2
1a000bea:	461e      	mov	r6, r3
1a000bec:	f7ff fff0 	bl	1a000bd0 <Chip_ADC_GetClockIndex>
1a000bf0:	f000 fc84 	bl	1a0014fc <Chip_Clock_GetRate>
1a000bf4:	b155      	cbz	r5, 1a000c0c <getClkDiv+0x28>
1a000bf6:	fb04 f406 	mul.w	r4, r4, r6
1a000bfa:	eb04 0040 	add.w	r0, r4, r0, lsl #1
1a000bfe:	0064      	lsls	r4, r4, #1
1a000c00:	fbb0 f0f4 	udiv	r0, r0, r4
1a000c04:	b2c0      	uxtb	r0, r0
1a000c06:	3801      	subs	r0, #1
1a000c08:	b2c0      	uxtb	r0, r0
1a000c0a:	bd70      	pop	{r4, r5, r6, pc}
1a000c0c:	eb04 0384 	add.w	r3, r4, r4, lsl #2
1a000c10:	eb04 0443 	add.w	r4, r4, r3, lsl #1
1a000c14:	e7f1      	b.n	1a000bfa <getClkDiv+0x16>

1a000c16 <setStartMode>:
1a000c16:	6803      	ldr	r3, [r0, #0]
1a000c18:	f023 63e0 	bic.w	r3, r3, #117440512	; 0x7000000
1a000c1c:	ea43 6101 	orr.w	r1, r3, r1, lsl #24
1a000c20:	6001      	str	r1, [r0, #0]
1a000c22:	4770      	bx	lr

1a000c24 <readAdcVal>:
1a000c24:	3104      	adds	r1, #4
1a000c26:	f850 3021 	ldr.w	r3, [r0, r1, lsl #2]
1a000c2a:	2b00      	cmp	r3, #0
1a000c2c:	da04      	bge.n	1a000c38 <readAdcVal+0x14>
1a000c2e:	f3c3 1389 	ubfx	r3, r3, #6, #10
1a000c32:	8013      	strh	r3, [r2, #0]
1a000c34:	2001      	movs	r0, #1
1a000c36:	4770      	bx	lr
1a000c38:	2000      	movs	r0, #0
1a000c3a:	4770      	bx	lr

1a000c3c <Chip_ADC_Init>:
1a000c3c:	b538      	push	{r3, r4, r5, lr}
1a000c3e:	4605      	mov	r5, r0
1a000c40:	460c      	mov	r4, r1
1a000c42:	f7ff ffc5 	bl	1a000bd0 <Chip_ADC_GetClockIndex>
1a000c46:	2301      	movs	r3, #1
1a000c48:	461a      	mov	r2, r3
1a000c4a:	4619      	mov	r1, r3
1a000c4c:	f000 fc04 	bl	1a001458 <Chip_Clock_EnableOpts>
1a000c50:	2100      	movs	r1, #0
1a000c52:	60e9      	str	r1, [r5, #12]
1a000c54:	4a08      	ldr	r2, [pc, #32]	; (1a000c78 <Chip_ADC_Init+0x3c>)
1a000c56:	6022      	str	r2, [r4, #0]
1a000c58:	7121      	strb	r1, [r4, #4]
1a000c5a:	7161      	strb	r1, [r4, #5]
1a000c5c:	230b      	movs	r3, #11
1a000c5e:	4628      	mov	r0, r5
1a000c60:	f7ff ffc0 	bl	1a000be4 <getClkDiv>
1a000c64:	0200      	lsls	r0, r0, #8
1a000c66:	f440 1300 	orr.w	r3, r0, #2097152	; 0x200000
1a000c6a:	7920      	ldrb	r0, [r4, #4]
1a000c6c:	0440      	lsls	r0, r0, #17
1a000c6e:	f400 2060 	and.w	r0, r0, #917504	; 0xe0000
1a000c72:	4318      	orrs	r0, r3
1a000c74:	6028      	str	r0, [r5, #0]
1a000c76:	bd38      	pop	{r3, r4, r5, pc}
1a000c78:	00061a80 	.word	0x00061a80

1a000c7c <Chip_ADC_DeInit>:
1a000c7c:	b508      	push	{r3, lr}
1a000c7e:	f44f 7280 	mov.w	r2, #256	; 0x100
1a000c82:	60c2      	str	r2, [r0, #12]
1a000c84:	2200      	movs	r2, #0
1a000c86:	6002      	str	r2, [r0, #0]
1a000c88:	f7ff ffa2 	bl	1a000bd0 <Chip_ADC_GetClockIndex>
1a000c8c:	f000 fc1c 	bl	1a0014c8 <Chip_Clock_Disable>
1a000c90:	bd08      	pop	{r3, pc}

1a000c92 <Chip_ADC_ReadValue>:
1a000c92:	b508      	push	{r3, lr}
1a000c94:	f7ff ffc6 	bl	1a000c24 <readAdcVal>
1a000c98:	bd08      	pop	{r3, pc}

1a000c9a <Chip_ADC_ReadStatus>:
1a000c9a:	2a01      	cmp	r2, #1
1a000c9c:	d00a      	beq.n	1a000cb4 <Chip_ADC_ReadStatus+0x1a>
1a000c9e:	b11a      	cbz	r2, 1a000ca8 <Chip_ADC_ReadStatus+0xe>
1a000ca0:	2a02      	cmp	r2, #2
1a000ca2:	d00f      	beq.n	1a000cc4 <Chip_ADC_ReadStatus+0x2a>
1a000ca4:	2000      	movs	r0, #0
1a000ca6:	4770      	bx	lr
1a000ca8:	6b00      	ldr	r0, [r0, #48]	; 0x30
1a000caa:	40c8      	lsrs	r0, r1
1a000cac:	f000 0001 	and.w	r0, r0, #1
1a000cb0:	b2c0      	uxtb	r0, r0
1a000cb2:	4770      	bx	lr
1a000cb4:	3108      	adds	r1, #8
1a000cb6:	b2c9      	uxtb	r1, r1
1a000cb8:	6b00      	ldr	r0, [r0, #48]	; 0x30
1a000cba:	40c8      	lsrs	r0, r1
1a000cbc:	f000 0001 	and.w	r0, r0, #1
1a000cc0:	b2c0      	uxtb	r0, r0
1a000cc2:	4770      	bx	lr
1a000cc4:	6b03      	ldr	r3, [r0, #48]	; 0x30
1a000cc6:	0c1b      	lsrs	r3, r3, #16
1a000cc8:	bf14      	ite	ne
1a000cca:	2001      	movne	r0, #1
1a000ccc:	2000      	moveq	r0, #0
1a000cce:	4770      	bx	lr

1a000cd0 <Chip_ADC_Int_SetChannelCmd>:
1a000cd0:	2a01      	cmp	r2, #1
1a000cd2:	d006      	beq.n	1a000ce2 <Chip_ADC_Int_SetChannelCmd+0x12>
1a000cd4:	68c3      	ldr	r3, [r0, #12]
1a000cd6:	2201      	movs	r2, #1
1a000cd8:	408a      	lsls	r2, r1
1a000cda:	ea23 0302 	bic.w	r3, r3, r2
1a000cde:	60c3      	str	r3, [r0, #12]
1a000ce0:	4770      	bx	lr
1a000ce2:	b410      	push	{r4}
1a000ce4:	68c4      	ldr	r4, [r0, #12]
1a000ce6:	408a      	lsls	r2, r1
1a000ce8:	4314      	orrs	r4, r2
1a000cea:	60c4      	str	r4, [r0, #12]
1a000cec:	f85d 4b04 	ldr.w	r4, [sp], #4
1a000cf0:	4770      	bx	lr

1a000cf2 <Chip_ADC_SetStartMode>:
1a000cf2:	b508      	push	{r3, lr}
1a000cf4:	2901      	cmp	r1, #1
1a000cf6:	d904      	bls.n	1a000d02 <Chip_ADC_SetStartMode+0x10>
1a000cf8:	b132      	cbz	r2, 1a000d08 <Chip_ADC_SetStartMode+0x16>
1a000cfa:	6803      	ldr	r3, [r0, #0]
1a000cfc:	f043 6300 	orr.w	r3, r3, #134217728	; 0x8000000
1a000d00:	6003      	str	r3, [r0, #0]
1a000d02:	f7ff ff88 	bl	1a000c16 <setStartMode>
1a000d06:	bd08      	pop	{r3, pc}
1a000d08:	6803      	ldr	r3, [r0, #0]
1a000d0a:	f023 6300 	bic.w	r3, r3, #134217728	; 0x8000000
1a000d0e:	6003      	str	r3, [r0, #0]
1a000d10:	e7f7      	b.n	1a000d02 <Chip_ADC_SetStartMode+0x10>

1a000d12 <Chip_ADC_SetSampleRate>:
1a000d12:	b570      	push	{r4, r5, r6, lr}
1a000d14:	4605      	mov	r5, r0
1a000d16:	460e      	mov	r6, r1
1a000d18:	6804      	ldr	r4, [r0, #0]
1a000d1a:	f424 246f 	bic.w	r4, r4, #978944	; 0xef000
1a000d1e:	f424 6470 	bic.w	r4, r4, #3840	; 0xf00
1a000d22:	600a      	str	r2, [r1, #0]
1a000d24:	790b      	ldrb	r3, [r1, #4]
1a000d26:	f1c3 030b 	rsb	r3, r3, #11
1a000d2a:	b2db      	uxtb	r3, r3
1a000d2c:	7949      	ldrb	r1, [r1, #5]
1a000d2e:	f7ff ff59 	bl	1a000be4 <getClkDiv>
1a000d32:	ea44 2000 	orr.w	r0, r4, r0, lsl #8
1a000d36:	7933      	ldrb	r3, [r6, #4]
1a000d38:	045b      	lsls	r3, r3, #17
1a000d3a:	f403 2360 	and.w	r3, r3, #917504	; 0xe0000
1a000d3e:	4303      	orrs	r3, r0
1a000d40:	602b      	str	r3, [r5, #0]
1a000d42:	bd70      	pop	{r4, r5, r6, pc}

1a000d44 <Chip_ADC_SetResolution>:
1a000d44:	b508      	push	{r3, lr}
1a000d46:	710a      	strb	r2, [r1, #4]
1a000d48:	680a      	ldr	r2, [r1, #0]
1a000d4a:	f7ff ffe2 	bl	1a000d12 <Chip_ADC_SetSampleRate>
1a000d4e:	bd08      	pop	{r3, pc}

1a000d50 <Chip_ADC_EnableChannel>:
1a000d50:	2a01      	cmp	r2, #1
1a000d52:	d00a      	beq.n	1a000d6a <Chip_ADC_EnableChannel+0x1a>
1a000d54:	6802      	ldr	r2, [r0, #0]
1a000d56:	f022 62e0 	bic.w	r2, r2, #117440512	; 0x7000000
1a000d5a:	6002      	str	r2, [r0, #0]
1a000d5c:	6803      	ldr	r3, [r0, #0]
1a000d5e:	2201      	movs	r2, #1
1a000d60:	408a      	lsls	r2, r1
1a000d62:	ea23 0302 	bic.w	r3, r3, r2
1a000d66:	6003      	str	r3, [r0, #0]
1a000d68:	4770      	bx	lr
1a000d6a:	b410      	push	{r4}
1a000d6c:	6804      	ldr	r4, [r0, #0]
1a000d6e:	408a      	lsls	r2, r1
1a000d70:	4314      	orrs	r4, r2
1a000d72:	6004      	str	r4, [r0, #0]
1a000d74:	f85d 4b04 	ldr.w	r4, [sp], #4
1a000d78:	4770      	bx	lr

1a000d7a <Chip_ADC_SetBurstCmd>:
1a000d7a:	b538      	push	{r3, r4, r5, lr}
1a000d7c:	4604      	mov	r4, r0
1a000d7e:	460d      	mov	r5, r1
1a000d80:	2100      	movs	r1, #0
1a000d82:	f7ff ff48 	bl	1a000c16 <setStartMode>
1a000d86:	b925      	cbnz	r5, 1a000d92 <Chip_ADC_SetBurstCmd+0x18>
1a000d88:	6823      	ldr	r3, [r4, #0]
1a000d8a:	f423 3380 	bic.w	r3, r3, #65536	; 0x10000
1a000d8e:	6023      	str	r3, [r4, #0]
1a000d90:	bd38      	pop	{r3, r4, r5, pc}
1a000d92:	6823      	ldr	r3, [r4, #0]
1a000d94:	f443 3380 	orr.w	r3, r3, #65536	; 0x10000
1a000d98:	6023      	str	r3, [r4, #0]
1a000d9a:	e7f9      	b.n	1a000d90 <Chip_ADC_SetBurstCmd+0x16>

1a000d9c <Chip_SetupCoreClock>:
1a000d9c:	b570      	push	{r4, r5, r6, lr}
1a000d9e:	b08a      	sub	sp, #40	; 0x28
1a000da0:	4605      	mov	r5, r0
1a000da2:	460e      	mov	r6, r1
1a000da4:	4614      	mov	r4, r2
1a000da6:	f24c 3350 	movw	r3, #50000	; 0xc350
1a000daa:	9309      	str	r3, [sp, #36]	; 0x24
1a000dac:	2806      	cmp	r0, #6
1a000dae:	d018      	beq.n	1a000de2 <Chip_SetupCoreClock+0x46>
1a000db0:	2300      	movs	r3, #0
1a000db2:	2201      	movs	r2, #1
1a000db4:	4629      	mov	r1, r5
1a000db6:	2004      	movs	r0, #4
1a000db8:	f000 fafc 	bl	1a0013b4 <Chip_Clock_SetBaseClock>
1a000dbc:	4a4a      	ldr	r2, [pc, #296]	; (1a000ee8 <Chip_SetupCoreClock+0x14c>)
1a000dbe:	6c53      	ldr	r3, [r2, #68]	; 0x44
1a000dc0:	f043 0301 	orr.w	r3, r3, #1
1a000dc4:	6453      	str	r3, [r2, #68]	; 0x44
1a000dc6:	f88d 5008 	strb.w	r5, [sp, #8]
1a000dca:	a901      	add	r1, sp, #4
1a000dcc:	4630      	mov	r0, r6
1a000dce:	f000 fa69 	bl	1a0012a4 <Chip_Clock_CalcMainPLLValue>
1a000dd2:	4b46      	ldr	r3, [pc, #280]	; (1a000eec <Chip_SetupCoreClock+0x150>)
1a000dd4:	429e      	cmp	r6, r3
1a000dd6:	d916      	bls.n	1a000e06 <Chip_SetupCoreClock+0x6a>
1a000dd8:	9b01      	ldr	r3, [sp, #4]
1a000dda:	f013 0f40 	tst.w	r3, #64	; 0x40
1a000dde:	d003      	beq.n	1a000de8 <Chip_SetupCoreClock+0x4c>
1a000de0:	e7fe      	b.n	1a000de0 <Chip_SetupCoreClock+0x44>
1a000de2:	f000 f9c1 	bl	1a001168 <Chip_Clock_EnableCrystal>
1a000de6:	e7e3      	b.n	1a000db0 <Chip_SetupCoreClock+0x14>
1a000de8:	f013 0f80 	tst.w	r3, #128	; 0x80
1a000dec:	d005      	beq.n	1a000dfa <Chip_SetupCoreClock+0x5e>
1a000dee:	f023 0380 	bic.w	r3, r3, #128	; 0x80
1a000df2:	9301      	str	r3, [sp, #4]
1a000df4:	2500      	movs	r5, #0
1a000df6:	2601      	movs	r6, #1
1a000df8:	e007      	b.n	1a000e0a <Chip_SetupCoreClock+0x6e>
1a000dfa:	9b04      	ldr	r3, [sp, #16]
1a000dfc:	3301      	adds	r3, #1
1a000dfe:	9304      	str	r3, [sp, #16]
1a000e00:	2501      	movs	r5, #1
1a000e02:	2600      	movs	r6, #0
1a000e04:	e001      	b.n	1a000e0a <Chip_SetupCoreClock+0x6e>
1a000e06:	2500      	movs	r5, #0
1a000e08:	462e      	mov	r6, r5
1a000e0a:	f89d 2008 	ldrb.w	r2, [sp, #8]
1a000e0e:	9b01      	ldr	r3, [sp, #4]
1a000e10:	ea43 6302 	orr.w	r3, r3, r2, lsl #24
1a000e14:	9a05      	ldr	r2, [sp, #20]
1a000e16:	ea43 4302 	orr.w	r3, r3, r2, lsl #16
1a000e1a:	9a03      	ldr	r2, [sp, #12]
1a000e1c:	ea43 3302 	orr.w	r3, r3, r2, lsl #12
1a000e20:	9a04      	ldr	r2, [sp, #16]
1a000e22:	ea43 2302 	orr.w	r3, r3, r2, lsl #8
1a000e26:	f443 6300 	orr.w	r3, r3, #2048	; 0x800
1a000e2a:	4a2f      	ldr	r2, [pc, #188]	; (1a000ee8 <Chip_SetupCoreClock+0x14c>)
1a000e2c:	6453      	str	r3, [r2, #68]	; 0x44
1a000e2e:	4b2e      	ldr	r3, [pc, #184]	; (1a000ee8 <Chip_SetupCoreClock+0x14c>)
1a000e30:	6c1b      	ldr	r3, [r3, #64]	; 0x40
1a000e32:	f013 0f01 	tst.w	r3, #1
1a000e36:	d0fa      	beq.n	1a000e2e <Chip_SetupCoreClock+0x92>
1a000e38:	2300      	movs	r3, #0
1a000e3a:	2201      	movs	r2, #1
1a000e3c:	2109      	movs	r1, #9
1a000e3e:	2004      	movs	r0, #4
1a000e40:	f000 fab8 	bl	1a0013b4 <Chip_Clock_SetBaseClock>
1a000e44:	b306      	cbz	r6, 1a000e88 <Chip_SetupCoreClock+0xec>
1a000e46:	f24c 3350 	movw	r3, #50000	; 0xc350
1a000e4a:	9309      	str	r3, [sp, #36]	; 0x24
1a000e4c:	9b09      	ldr	r3, [sp, #36]	; 0x24
1a000e4e:	1e5a      	subs	r2, r3, #1
1a000e50:	9209      	str	r2, [sp, #36]	; 0x24
1a000e52:	2b00      	cmp	r3, #0
1a000e54:	d1fa      	bne.n	1a000e4c <Chip_SetupCoreClock+0xb0>
1a000e56:	9b01      	ldr	r3, [sp, #4]
1a000e58:	f043 0380 	orr.w	r3, r3, #128	; 0x80
1a000e5c:	9301      	str	r3, [sp, #4]
1a000e5e:	f89d 2008 	ldrb.w	r2, [sp, #8]
1a000e62:	ea43 6302 	orr.w	r3, r3, r2, lsl #24
1a000e66:	9a05      	ldr	r2, [sp, #20]
1a000e68:	ea43 4302 	orr.w	r3, r3, r2, lsl #16
1a000e6c:	9a03      	ldr	r2, [sp, #12]
1a000e6e:	ea43 3302 	orr.w	r3, r3, r2, lsl #12
1a000e72:	9a04      	ldr	r2, [sp, #16]
1a000e74:	ea43 2302 	orr.w	r3, r3, r2, lsl #8
1a000e78:	f443 6300 	orr.w	r3, r3, #2048	; 0x800
1a000e7c:	4a1a      	ldr	r2, [pc, #104]	; (1a000ee8 <Chip_SetupCoreClock+0x14c>)
1a000e7e:	6453      	str	r3, [r2, #68]	; 0x44
1a000e80:	2c00      	cmp	r4, #0
1a000e82:	d12e      	bne.n	1a000ee2 <Chip_SetupCoreClock+0x146>
1a000e84:	b00a      	add	sp, #40	; 0x28
1a000e86:	bd70      	pop	{r4, r5, r6, pc}
1a000e88:	2d00      	cmp	r5, #0
1a000e8a:	d0f9      	beq.n	1a000e80 <Chip_SetupCoreClock+0xe4>
1a000e8c:	f24c 3350 	movw	r3, #50000	; 0xc350
1a000e90:	9309      	str	r3, [sp, #36]	; 0x24
1a000e92:	9b09      	ldr	r3, [sp, #36]	; 0x24
1a000e94:	1e5a      	subs	r2, r3, #1
1a000e96:	9209      	str	r2, [sp, #36]	; 0x24
1a000e98:	2b00      	cmp	r3, #0
1a000e9a:	d1fa      	bne.n	1a000e92 <Chip_SetupCoreClock+0xf6>
1a000e9c:	9b04      	ldr	r3, [sp, #16]
1a000e9e:	1e5a      	subs	r2, r3, #1
1a000ea0:	9204      	str	r2, [sp, #16]
1a000ea2:	f89d 1008 	ldrb.w	r1, [sp, #8]
1a000ea6:	9b01      	ldr	r3, [sp, #4]
1a000ea8:	ea43 6301 	orr.w	r3, r3, r1, lsl #24
1a000eac:	9905      	ldr	r1, [sp, #20]
1a000eae:	ea43 4301 	orr.w	r3, r3, r1, lsl #16
1a000eb2:	9903      	ldr	r1, [sp, #12]
1a000eb4:	ea43 3301 	orr.w	r3, r3, r1, lsl #12
1a000eb8:	ea43 2302 	orr.w	r3, r3, r2, lsl #8
1a000ebc:	f443 6300 	orr.w	r3, r3, #2048	; 0x800
1a000ec0:	4a09      	ldr	r2, [pc, #36]	; (1a000ee8 <Chip_SetupCoreClock+0x14c>)
1a000ec2:	6453      	str	r3, [r2, #68]	; 0x44
1a000ec4:	e7dc      	b.n	1a000e80 <Chip_SetupCoreClock+0xe4>
1a000ec6:	480a      	ldr	r0, [pc, #40]	; (1a000ef0 <Chip_SetupCoreClock+0x154>)
1a000ec8:	eb00 0184 	add.w	r1, r0, r4, lsl #2
1a000ecc:	78cb      	ldrb	r3, [r1, #3]
1a000ece:	788a      	ldrb	r2, [r1, #2]
1a000ed0:	7849      	ldrb	r1, [r1, #1]
1a000ed2:	f810 0024 	ldrb.w	r0, [r0, r4, lsl #2]
1a000ed6:	f000 fa6d 	bl	1a0013b4 <Chip_Clock_SetBaseClock>
1a000eda:	3401      	adds	r4, #1
1a000edc:	2c11      	cmp	r4, #17
1a000ede:	d9f2      	bls.n	1a000ec6 <Chip_SetupCoreClock+0x12a>
1a000ee0:	e7d0      	b.n	1a000e84 <Chip_SetupCoreClock+0xe8>
1a000ee2:	2400      	movs	r4, #0
1a000ee4:	e7fa      	b.n	1a000edc <Chip_SetupCoreClock+0x140>
1a000ee6:	bf00      	nop
1a000ee8:	40050000 	.word	0x40050000
1a000eec:	068e7780 	.word	0x068e7780
1a000ef0:	1a003180 	.word	0x1a003180

1a000ef4 <Chip_USB_PllSetup>:
1a000ef4:	b508      	push	{r3, lr}
1a000ef6:	2007      	movs	r0, #7
1a000ef8:	f000 f978 	bl	1a0011ec <Chip_Clock_GetClockInputHz>
1a000efc:	4b08      	ldr	r3, [pc, #32]	; (1a000f20 <Chip_USB_PllSetup+0x2c>)
1a000efe:	4298      	cmp	r0, r3
1a000f00:	d00d      	beq.n	1a000f1e <Chip_USB_PllSetup+0x2a>
1a000f02:	4a08      	ldr	r2, [pc, #32]	; (1a000f24 <Chip_USB_PllSetup+0x30>)
1a000f04:	2100      	movs	r1, #0
1a000f06:	2006      	movs	r0, #6
1a000f08:	f000 fb1e 	bl	1a001548 <Chip_Clock_SetupPLL>
1a000f0c:	2000      	movs	r0, #0
1a000f0e:	f000 fb3b 	bl	1a001588 <Chip_Clock_EnablePLL>
1a000f12:	2000      	movs	r0, #0
1a000f14:	f000 fb42 	bl	1a00159c <Chip_Clock_GetPLLStatus>
1a000f18:	f010 0f01 	tst.w	r0, #1
1a000f1c:	d0f9      	beq.n	1a000f12 <Chip_USB_PllSetup+0x1e>
1a000f1e:	bd08      	pop	{r3, pc}
1a000f20:	1c9c3800 	.word	0x1c9c3800
1a000f24:	1a0031c8 	.word	0x1a0031c8

1a000f28 <Chip_USB0_Init>:
1a000f28:	b508      	push	{r3, lr}
1a000f2a:	f7ff ffe3 	bl	1a000ef4 <Chip_USB_PllSetup>
1a000f2e:	2301      	movs	r3, #1
1a000f30:	461a      	mov	r2, r3
1a000f32:	2107      	movs	r1, #7
1a000f34:	4618      	mov	r0, r3
1a000f36:	f000 fa3d 	bl	1a0013b4 <Chip_Clock_SetBaseClock>
1a000f3a:	2001      	movs	r0, #1
1a000f3c:	f000 fa66 	bl	1a00140c <Chip_Clock_EnableBaseClock>
1a000f40:	2301      	movs	r3, #1
1a000f42:	461a      	mov	r2, r3
1a000f44:	4619      	mov	r1, r3
1a000f46:	2065      	movs	r0, #101	; 0x65
1a000f48:	f000 fa86 	bl	1a001458 <Chip_Clock_EnableOpts>
1a000f4c:	4a02      	ldr	r2, [pc, #8]	; (1a000f58 <Chip_USB0_Init+0x30>)
1a000f4e:	6853      	ldr	r3, [r2, #4]
1a000f50:	f023 0320 	bic.w	r3, r3, #32
1a000f54:	6053      	str	r3, [r2, #4]
1a000f56:	bd08      	pop	{r3, pc}
1a000f58:	40043000 	.word	0x40043000

1a000f5c <SystemCoreClockUpdate>:
1a000f5c:	b508      	push	{r3, lr}
1a000f5e:	2069      	movs	r0, #105	; 0x69
1a000f60:	f000 facc 	bl	1a0014fc <Chip_Clock_GetRate>
1a000f64:	4b01      	ldr	r3, [pc, #4]	; (1a000f6c <SystemCoreClockUpdate+0x10>)
1a000f66:	6018      	str	r0, [r3, #0]
1a000f68:	bd08      	pop	{r3, pc}
1a000f6a:	bf00      	nop
1a000f6c:	10000178 	.word	0x10000178

1a000f70 <pll_calc_divs>:
1a000f70:	b4f0      	push	{r4, r5, r6, r7}
1a000f72:	680b      	ldr	r3, [r1, #0]
1a000f74:	f013 0f80 	tst.w	r3, #128	; 0x80
1a000f78:	d002      	beq.n	1a000f80 <pll_calc_divs+0x10>
1a000f7a:	f023 0340 	bic.w	r3, r3, #64	; 0x40
1a000f7e:	600b      	str	r3, [r1, #0]
1a000f80:	4607      	mov	r7, r0
1a000f82:	2501      	movs	r5, #1
1a000f84:	e03a      	b.n	1a000ffc <pll_calc_divs+0x8c>
1a000f86:	694b      	ldr	r3, [r1, #20]
1a000f88:	fb03 f302 	mul.w	r3, r3, r2
1a000f8c:	fbb3 f3f5 	udiv	r3, r3, r5
1a000f90:	e01c      	b.n	1a000fcc <pll_calc_divs+0x5c>
1a000f92:	461c      	mov	r4, r3
1a000f94:	ebb0 0c04 	subs.w	ip, r0, r4
1a000f98:	d427      	bmi.n	1a000fea <pll_calc_divs+0x7a>
1a000f9a:	4567      	cmp	r7, ip
1a000f9c:	d906      	bls.n	1a000fac <pll_calc_divs+0x3c>
1a000f9e:	608d      	str	r5, [r1, #8]
1a000fa0:	1c77      	adds	r7, r6, #1
1a000fa2:	60cf      	str	r7, [r1, #12]
1a000fa4:	610a      	str	r2, [r1, #16]
1a000fa6:	618c      	str	r4, [r1, #24]
1a000fa8:	61cb      	str	r3, [r1, #28]
1a000faa:	4667      	mov	r7, ip
1a000fac:	3201      	adds	r2, #1
1a000fae:	f5b2 7f80 	cmp.w	r2, #256	; 0x100
1a000fb2:	dc1d      	bgt.n	1a000ff0 <pll_calc_divs+0x80>
1a000fb4:	680c      	ldr	r4, [r1, #0]
1a000fb6:	f014 0f40 	tst.w	r4, #64	; 0x40
1a000fba:	d0e4      	beq.n	1a000f86 <pll_calc_divs+0x16>
1a000fbc:	1c73      	adds	r3, r6, #1
1a000fbe:	fa02 fc03 	lsl.w	ip, r2, r3
1a000fc2:	694b      	ldr	r3, [r1, #20]
1a000fc4:	fb03 f30c 	mul.w	r3, r3, ip
1a000fc8:	fbb3 f3f5 	udiv	r3, r3, r5
1a000fcc:	f8df c038 	ldr.w	ip, [pc, #56]	; 1a001008 <pll_calc_divs+0x98>
1a000fd0:	4563      	cmp	r3, ip
1a000fd2:	d9eb      	bls.n	1a000fac <pll_calc_divs+0x3c>
1a000fd4:	f8df c034 	ldr.w	ip, [pc, #52]	; 1a00100c <pll_calc_divs+0x9c>
1a000fd8:	4563      	cmp	r3, ip
1a000fda:	d809      	bhi.n	1a000ff0 <pll_calc_divs+0x80>
1a000fdc:	f014 0f80 	tst.w	r4, #128	; 0x80
1a000fe0:	d1d7      	bne.n	1a000f92 <pll_calc_divs+0x22>
1a000fe2:	1c74      	adds	r4, r6, #1
1a000fe4:	fa23 f404 	lsr.w	r4, r3, r4
1a000fe8:	e7d4      	b.n	1a000f94 <pll_calc_divs+0x24>
1a000fea:	f1cc 0c00 	rsb	ip, ip, #0
1a000fee:	e7d4      	b.n	1a000f9a <pll_calc_divs+0x2a>
1a000ff0:	3601      	adds	r6, #1
1a000ff2:	2e03      	cmp	r6, #3
1a000ff4:	dc01      	bgt.n	1a000ffa <pll_calc_divs+0x8a>
1a000ff6:	2201      	movs	r2, #1
1a000ff8:	e7d9      	b.n	1a000fae <pll_calc_divs+0x3e>
1a000ffa:	3501      	adds	r5, #1
1a000ffc:	2d04      	cmp	r5, #4
1a000ffe:	dc01      	bgt.n	1a001004 <pll_calc_divs+0x94>
1a001000:	2600      	movs	r6, #0
1a001002:	e7f6      	b.n	1a000ff2 <pll_calc_divs+0x82>
1a001004:	bcf0      	pop	{r4, r5, r6, r7}
1a001006:	4770      	bx	lr
1a001008:	094c5eff 	.word	0x094c5eff
1a00100c:	1312d000 	.word	0x1312d000

1a001010 <pll_get_frac>:
1a001010:	b5f0      	push	{r4, r5, r6, r7, lr}
1a001012:	b099      	sub	sp, #100	; 0x64
1a001014:	4605      	mov	r5, r0
1a001016:	460c      	mov	r4, r1
1a001018:	225c      	movs	r2, #92	; 0x5c
1a00101a:	2100      	movs	r1, #0
1a00101c:	a801      	add	r0, sp, #4
1a00101e:	f001 fd28 	bl	1a002a72 <memset>
1a001022:	2380      	movs	r3, #128	; 0x80
1a001024:	9300      	str	r3, [sp, #0]
1a001026:	6963      	ldr	r3, [r4, #20]
1a001028:	9305      	str	r3, [sp, #20]
1a00102a:	7923      	ldrb	r3, [r4, #4]
1a00102c:	f88d 3004 	strb.w	r3, [sp, #4]
1a001030:	4669      	mov	r1, sp
1a001032:	4628      	mov	r0, r5
1a001034:	f7ff ff9c 	bl	1a000f70 <pll_calc_divs>
1a001038:	9b06      	ldr	r3, [sp, #24]
1a00103a:	42ab      	cmp	r3, r5
1a00103c:	d027      	beq.n	1a00108e <pll_get_frac+0x7e>
1a00103e:	1aeb      	subs	r3, r5, r3
1a001040:	d42e      	bmi.n	1a0010a0 <pll_get_frac+0x90>
1a001042:	461e      	mov	r6, r3
1a001044:	9b10      	ldr	r3, [sp, #64]	; 0x40
1a001046:	f023 0340 	bic.w	r3, r3, #64	; 0x40
1a00104a:	9310      	str	r3, [sp, #64]	; 0x40
1a00104c:	6963      	ldr	r3, [r4, #20]
1a00104e:	9315      	str	r3, [sp, #84]	; 0x54
1a001050:	7923      	ldrb	r3, [r4, #4]
1a001052:	f88d 3044 	strb.w	r3, [sp, #68]	; 0x44
1a001056:	a910      	add	r1, sp, #64	; 0x40
1a001058:	4628      	mov	r0, r5
1a00105a:	f7ff ff89 	bl	1a000f70 <pll_calc_divs>
1a00105e:	9b16      	ldr	r3, [sp, #88]	; 0x58
1a001060:	42ab      	cmp	r3, r5
1a001062:	d01f      	beq.n	1a0010a4 <pll_get_frac+0x94>
1a001064:	1aeb      	subs	r3, r5, r3
1a001066:	d425      	bmi.n	1a0010b4 <pll_get_frac+0xa4>
1a001068:	461f      	mov	r7, r3
1a00106a:	4b2b      	ldr	r3, [pc, #172]	; (1a001118 <pll_get_frac+0x108>)
1a00106c:	429d      	cmp	r5, r3
1a00106e:	d923      	bls.n	1a0010b8 <pll_get_frac+0xa8>
1a001070:	9b0e      	ldr	r3, [sp, #56]	; 0x38
1a001072:	1aed      	subs	r5, r5, r3
1a001074:	d433      	bmi.n	1a0010de <pll_get_frac+0xce>
1a001076:	42ae      	cmp	r6, r5
1a001078:	dc3b      	bgt.n	1a0010f2 <pll_get_frac+0xe2>
1a00107a:	42be      	cmp	r6, r7
1a00107c:	dc31      	bgt.n	1a0010e2 <pll_get_frac+0xd2>
1a00107e:	466d      	mov	r5, sp
1a001080:	cd0f      	ldmia	r5!, {r0, r1, r2, r3}
1a001082:	c40f      	stmia	r4!, {r0, r1, r2, r3}
1a001084:	e895 000f 	ldmia.w	r5, {r0, r1, r2, r3}
1a001088:	e884 000f 	stmia.w	r4, {r0, r1, r2, r3}
1a00108c:	e006      	b.n	1a00109c <pll_get_frac+0x8c>
1a00108e:	466d      	mov	r5, sp
1a001090:	cd0f      	ldmia	r5!, {r0, r1, r2, r3}
1a001092:	c40f      	stmia	r4!, {r0, r1, r2, r3}
1a001094:	e895 000f 	ldmia.w	r5, {r0, r1, r2, r3}
1a001098:	e884 000f 	stmia.w	r4, {r0, r1, r2, r3}
1a00109c:	b019      	add	sp, #100	; 0x64
1a00109e:	bdf0      	pop	{r4, r5, r6, r7, pc}
1a0010a0:	425b      	negs	r3, r3
1a0010a2:	e7ce      	b.n	1a001042 <pll_get_frac+0x32>
1a0010a4:	ad10      	add	r5, sp, #64	; 0x40
1a0010a6:	cd0f      	ldmia	r5!, {r0, r1, r2, r3}
1a0010a8:	c40f      	stmia	r4!, {r0, r1, r2, r3}
1a0010aa:	e895 000f 	ldmia.w	r5, {r0, r1, r2, r3}
1a0010ae:	e884 000f 	stmia.w	r4, {r0, r1, r2, r3}
1a0010b2:	e7f3      	b.n	1a00109c <pll_get_frac+0x8c>
1a0010b4:	425b      	negs	r3, r3
1a0010b6:	e7d7      	b.n	1a001068 <pll_get_frac+0x58>
1a0010b8:	2340      	movs	r3, #64	; 0x40
1a0010ba:	9308      	str	r3, [sp, #32]
1a0010bc:	6963      	ldr	r3, [r4, #20]
1a0010be:	930d      	str	r3, [sp, #52]	; 0x34
1a0010c0:	a908      	add	r1, sp, #32
1a0010c2:	4628      	mov	r0, r5
1a0010c4:	f7ff ff54 	bl	1a000f70 <pll_calc_divs>
1a0010c8:	9b0e      	ldr	r3, [sp, #56]	; 0x38
1a0010ca:	42ab      	cmp	r3, r5
1a0010cc:	d1d0      	bne.n	1a001070 <pll_get_frac+0x60>
1a0010ce:	ad08      	add	r5, sp, #32
1a0010d0:	cd0f      	ldmia	r5!, {r0, r1, r2, r3}
1a0010d2:	c40f      	stmia	r4!, {r0, r1, r2, r3}
1a0010d4:	e895 000f 	ldmia.w	r5, {r0, r1, r2, r3}
1a0010d8:	e884 000f 	stmia.w	r4, {r0, r1, r2, r3}
1a0010dc:	e7de      	b.n	1a00109c <pll_get_frac+0x8c>
1a0010de:	426d      	negs	r5, r5
1a0010e0:	e7c9      	b.n	1a001076 <pll_get_frac+0x66>
1a0010e2:	ad10      	add	r5, sp, #64	; 0x40
1a0010e4:	cd0f      	ldmia	r5!, {r0, r1, r2, r3}
1a0010e6:	c40f      	stmia	r4!, {r0, r1, r2, r3}
1a0010e8:	e895 000f 	ldmia.w	r5, {r0, r1, r2, r3}
1a0010ec:	e884 000f 	stmia.w	r4, {r0, r1, r2, r3}
1a0010f0:	e7d4      	b.n	1a00109c <pll_get_frac+0x8c>
1a0010f2:	42af      	cmp	r7, r5
1a0010f4:	db07      	blt.n	1a001106 <pll_get_frac+0xf6>
1a0010f6:	ad08      	add	r5, sp, #32
1a0010f8:	cd0f      	ldmia	r5!, {r0, r1, r2, r3}
1a0010fa:	c40f      	stmia	r4!, {r0, r1, r2, r3}
1a0010fc:	e895 000f 	ldmia.w	r5, {r0, r1, r2, r3}
1a001100:	e884 000f 	stmia.w	r4, {r0, r1, r2, r3}
1a001104:	e7ca      	b.n	1a00109c <pll_get_frac+0x8c>
1a001106:	ad10      	add	r5, sp, #64	; 0x40
1a001108:	cd0f      	ldmia	r5!, {r0, r1, r2, r3}
1a00110a:	c40f      	stmia	r4!, {r0, r1, r2, r3}
1a00110c:	e895 000f 	ldmia.w	r5, {r0, r1, r2, r3}
1a001110:	e884 000f 	stmia.w	r4, {r0, r1, r2, r3}
1a001114:	e7c2      	b.n	1a00109c <pll_get_frac+0x8c>
1a001116:	bf00      	nop
1a001118:	068e7780 	.word	0x068e7780

1a00111c <Chip_Clock_FindBaseClock>:
1a00111c:	b430      	push	{r4, r5}
1a00111e:	4605      	mov	r5, r0
1a001120:	2300      	movs	r3, #0
1a001122:	201c      	movs	r0, #28
1a001124:	e000      	b.n	1a001128 <Chip_Clock_FindBaseClock+0xc>
1a001126:	3301      	adds	r3, #1
1a001128:	281c      	cmp	r0, #28
1a00112a:	d118      	bne.n	1a00115e <Chip_Clock_FindBaseClock+0x42>
1a00112c:	eb03 0243 	add.w	r2, r3, r3, lsl #1
1a001130:	0051      	lsls	r1, r2, #1
1a001132:	4a0c      	ldr	r2, [pc, #48]	; (1a001164 <Chip_Clock_FindBaseClock+0x48>)
1a001134:	440a      	add	r2, r1
1a001136:	7914      	ldrb	r4, [r2, #4]
1a001138:	4284      	cmp	r4, r0
1a00113a:	d010      	beq.n	1a00115e <Chip_Clock_FindBaseClock+0x42>
1a00113c:	eb03 0143 	add.w	r1, r3, r3, lsl #1
1a001140:	004a      	lsls	r2, r1, #1
1a001142:	4908      	ldr	r1, [pc, #32]	; (1a001164 <Chip_Clock_FindBaseClock+0x48>)
1a001144:	5a8a      	ldrh	r2, [r1, r2]
1a001146:	42aa      	cmp	r2, r5
1a001148:	d8ed      	bhi.n	1a001126 <Chip_Clock_FindBaseClock+0xa>
1a00114a:	eb03 0243 	add.w	r2, r3, r3, lsl #1
1a00114e:	0051      	lsls	r1, r2, #1
1a001150:	4a04      	ldr	r2, [pc, #16]	; (1a001164 <Chip_Clock_FindBaseClock+0x48>)
1a001152:	440a      	add	r2, r1
1a001154:	8852      	ldrh	r2, [r2, #2]
1a001156:	42aa      	cmp	r2, r5
1a001158:	d3e5      	bcc.n	1a001126 <Chip_Clock_FindBaseClock+0xa>
1a00115a:	4620      	mov	r0, r4
1a00115c:	e7e4      	b.n	1a001128 <Chip_Clock_FindBaseClock+0xc>
1a00115e:	bc30      	pop	{r4, r5}
1a001160:	4770      	bx	lr
1a001162:	bf00      	nop
1a001164:	1a0031e8 	.word	0x1a0031e8

1a001168 <Chip_Clock_EnableCrystal>:
1a001168:	b082      	sub	sp, #8
1a00116a:	f44f 737a 	mov.w	r3, #1000	; 0x3e8
1a00116e:	9301      	str	r3, [sp, #4]
1a001170:	4a0d      	ldr	r2, [pc, #52]	; (1a0011a8 <Chip_Clock_EnableCrystal+0x40>)
1a001172:	6993      	ldr	r3, [r2, #24]
1a001174:	f023 0102 	bic.w	r1, r3, #2
1a001178:	6992      	ldr	r2, [r2, #24]
1a00117a:	428a      	cmp	r2, r1
1a00117c:	d001      	beq.n	1a001182 <Chip_Clock_EnableCrystal+0x1a>
1a00117e:	4a0a      	ldr	r2, [pc, #40]	; (1a0011a8 <Chip_Clock_EnableCrystal+0x40>)
1a001180:	6191      	str	r1, [r2, #24]
1a001182:	f023 0303 	bic.w	r3, r3, #3
1a001186:	4a09      	ldr	r2, [pc, #36]	; (1a0011ac <Chip_Clock_EnableCrystal+0x44>)
1a001188:	6811      	ldr	r1, [r2, #0]
1a00118a:	4a09      	ldr	r2, [pc, #36]	; (1a0011b0 <Chip_Clock_EnableCrystal+0x48>)
1a00118c:	4291      	cmp	r1, r2
1a00118e:	d901      	bls.n	1a001194 <Chip_Clock_EnableCrystal+0x2c>
1a001190:	f043 0304 	orr.w	r3, r3, #4
1a001194:	4a04      	ldr	r2, [pc, #16]	; (1a0011a8 <Chip_Clock_EnableCrystal+0x40>)
1a001196:	6193      	str	r3, [r2, #24]
1a001198:	9b01      	ldr	r3, [sp, #4]
1a00119a:	1e5a      	subs	r2, r3, #1
1a00119c:	9201      	str	r2, [sp, #4]
1a00119e:	2b00      	cmp	r3, #0
1a0011a0:	d1fa      	bne.n	1a001198 <Chip_Clock_EnableCrystal+0x30>
1a0011a2:	b002      	add	sp, #8
1a0011a4:	4770      	bx	lr
1a0011a6:	bf00      	nop
1a0011a8:	40050000 	.word	0x40050000
1a0011ac:	1a00317c 	.word	0x1a00317c
1a0011b0:	01312cff 	.word	0x01312cff

1a0011b4 <Chip_Clock_GetDividerSource>:
1a0011b4:	3012      	adds	r0, #18
1a0011b6:	4b05      	ldr	r3, [pc, #20]	; (1a0011cc <Chip_Clock_GetDividerSource+0x18>)
1a0011b8:	f853 0020 	ldr.w	r0, [r3, r0, lsl #2]
1a0011bc:	f010 0f01 	tst.w	r0, #1
1a0011c0:	d102      	bne.n	1a0011c8 <Chip_Clock_GetDividerSource+0x14>
1a0011c2:	f3c0 6004 	ubfx	r0, r0, #24, #5
1a0011c6:	4770      	bx	lr
1a0011c8:	2011      	movs	r0, #17
1a0011ca:	4770      	bx	lr
1a0011cc:	40050000 	.word	0x40050000

1a0011d0 <Chip_Clock_GetDividerDivisor>:
1a0011d0:	f100 0212 	add.w	r2, r0, #18
1a0011d4:	4b03      	ldr	r3, [pc, #12]	; (1a0011e4 <Chip_Clock_GetDividerDivisor+0x14>)
1a0011d6:	f853 2022 	ldr.w	r2, [r3, r2, lsl #2]
1a0011da:	4b03      	ldr	r3, [pc, #12]	; (1a0011e8 <Chip_Clock_GetDividerDivisor+0x18>)
1a0011dc:	5c18      	ldrb	r0, [r3, r0]
1a0011de:	ea00 0092 	and.w	r0, r0, r2, lsr #2
1a0011e2:	4770      	bx	lr
1a0011e4:	40050000 	.word	0x40050000
1a0011e8:	1a0031e0 	.word	0x1a0031e0

1a0011ec <Chip_Clock_GetClockInputHz>:
1a0011ec:	b508      	push	{r3, lr}
1a0011ee:	2810      	cmp	r0, #16
1a0011f0:	d80a      	bhi.n	1a001208 <Chip_Clock_GetClockInputHz+0x1c>
1a0011f2:	e8df f000 	tbb	[pc, r0]
1a0011f6:	0b44      	.short	0x0b44
1a0011f8:	0921180d 	.word	0x0921180d
1a0011fc:	2d2a2724 	.word	0x2d2a2724
1a001200:	34300909 	.word	0x34300909
1a001204:	3c38      	.short	0x3c38
1a001206:	40          	.byte	0x40
1a001207:	00          	.byte	0x00
1a001208:	2000      	movs	r0, #0
1a00120a:	e03a      	b.n	1a001282 <Chip_Clock_GetClockInputHz+0x96>
1a00120c:	481e      	ldr	r0, [pc, #120]	; (1a001288 <Chip_Clock_GetClockInputHz+0x9c>)
1a00120e:	e038      	b.n	1a001282 <Chip_Clock_GetClockInputHz+0x96>
1a001210:	4b1e      	ldr	r3, [pc, #120]	; (1a00128c <Chip_Clock_GetClockInputHz+0xa0>)
1a001212:	f8d3 312c 	ldr.w	r3, [r3, #300]	; 0x12c
1a001216:	f003 0307 	and.w	r3, r3, #7
1a00121a:	2b04      	cmp	r3, #4
1a00121c:	d001      	beq.n	1a001222 <Chip_Clock_GetClockInputHz+0x36>
1a00121e:	481c      	ldr	r0, [pc, #112]	; (1a001290 <Chip_Clock_GetClockInputHz+0xa4>)
1a001220:	e02f      	b.n	1a001282 <Chip_Clock_GetClockInputHz+0x96>
1a001222:	2000      	movs	r0, #0
1a001224:	e02d      	b.n	1a001282 <Chip_Clock_GetClockInputHz+0x96>
1a001226:	4b19      	ldr	r3, [pc, #100]	; (1a00128c <Chip_Clock_GetClockInputHz+0xa0>)
1a001228:	f8d3 312c 	ldr.w	r3, [r3, #300]	; 0x12c
1a00122c:	f003 0307 	and.w	r3, r3, #7
1a001230:	2b04      	cmp	r3, #4
1a001232:	d027      	beq.n	1a001284 <Chip_Clock_GetClockInputHz+0x98>
1a001234:	4816      	ldr	r0, [pc, #88]	; (1a001290 <Chip_Clock_GetClockInputHz+0xa4>)
1a001236:	e024      	b.n	1a001282 <Chip_Clock_GetClockInputHz+0x96>
1a001238:	4b16      	ldr	r3, [pc, #88]	; (1a001294 <Chip_Clock_GetClockInputHz+0xa8>)
1a00123a:	6818      	ldr	r0, [r3, #0]
1a00123c:	e021      	b.n	1a001282 <Chip_Clock_GetClockInputHz+0x96>
1a00123e:	4b16      	ldr	r3, [pc, #88]	; (1a001298 <Chip_Clock_GetClockInputHz+0xac>)
1a001240:	6818      	ldr	r0, [r3, #0]
1a001242:	e01e      	b.n	1a001282 <Chip_Clock_GetClockInputHz+0x96>
1a001244:	4b15      	ldr	r3, [pc, #84]	; (1a00129c <Chip_Clock_GetClockInputHz+0xb0>)
1a001246:	6818      	ldr	r0, [r3, #0]
1a001248:	e01b      	b.n	1a001282 <Chip_Clock_GetClockInputHz+0x96>
1a00124a:	4b14      	ldr	r3, [pc, #80]	; (1a00129c <Chip_Clock_GetClockInputHz+0xb0>)
1a00124c:	6858      	ldr	r0, [r3, #4]
1a00124e:	e018      	b.n	1a001282 <Chip_Clock_GetClockInputHz+0x96>
1a001250:	f000 f868 	bl	1a001324 <Chip_Clock_GetMainPLLHz>
1a001254:	e015      	b.n	1a001282 <Chip_Clock_GetClockInputHz+0x96>
1a001256:	2100      	movs	r1, #0
1a001258:	f000 f89a 	bl	1a001390 <Chip_Clock_GetDivRate>
1a00125c:	e011      	b.n	1a001282 <Chip_Clock_GetClockInputHz+0x96>
1a00125e:	2101      	movs	r1, #1
1a001260:	f000 f896 	bl	1a001390 <Chip_Clock_GetDivRate>
1a001264:	e00d      	b.n	1a001282 <Chip_Clock_GetClockInputHz+0x96>
1a001266:	2102      	movs	r1, #2
1a001268:	f000 f892 	bl	1a001390 <Chip_Clock_GetDivRate>
1a00126c:	e009      	b.n	1a001282 <Chip_Clock_GetClockInputHz+0x96>
1a00126e:	2103      	movs	r1, #3
1a001270:	f000 f88e 	bl	1a001390 <Chip_Clock_GetDivRate>
1a001274:	e005      	b.n	1a001282 <Chip_Clock_GetClockInputHz+0x96>
1a001276:	2104      	movs	r1, #4
1a001278:	f000 f88a 	bl	1a001390 <Chip_Clock_GetDivRate>
1a00127c:	e001      	b.n	1a001282 <Chip_Clock_GetClockInputHz+0x96>
1a00127e:	f44f 4000 	mov.w	r0, #32768	; 0x8000
1a001282:	bd08      	pop	{r3, pc}
1a001284:	4806      	ldr	r0, [pc, #24]	; (1a0012a0 <Chip_Clock_GetClockInputHz+0xb4>)
1a001286:	e7fc      	b.n	1a001282 <Chip_Clock_GetClockInputHz+0x96>
1a001288:	00b71b00 	.word	0x00b71b00
1a00128c:	40043000 	.word	0x40043000
1a001290:	017d7840 	.word	0x017d7840
1a001294:	1a003150 	.word	0x1a003150
1a001298:	1a00317c 	.word	0x1a00317c
1a00129c:	10000118 	.word	0x10000118
1a0012a0:	02faf080 	.word	0x02faf080

1a0012a4 <Chip_Clock_CalcMainPLLValue>:
1a0012a4:	b538      	push	{r3, r4, r5, lr}
1a0012a6:	4605      	mov	r5, r0
1a0012a8:	460c      	mov	r4, r1
1a0012aa:	7908      	ldrb	r0, [r1, #4]
1a0012ac:	f7ff ff9e 	bl	1a0011ec <Chip_Clock_GetClockInputHz>
1a0012b0:	6160      	str	r0, [r4, #20]
1a0012b2:	4b19      	ldr	r3, [pc, #100]	; (1a001318 <Chip_Clock_CalcMainPLLValue+0x74>)
1a0012b4:	442b      	add	r3, r5
1a0012b6:	4a19      	ldr	r2, [pc, #100]	; (1a00131c <Chip_Clock_CalcMainPLLValue+0x78>)
1a0012b8:	4293      	cmp	r3, r2
1a0012ba:	d821      	bhi.n	1a001300 <Chip_Clock_CalcMainPLLValue+0x5c>
1a0012bc:	b318      	cbz	r0, 1a001306 <Chip_Clock_CalcMainPLLValue+0x62>
1a0012be:	2380      	movs	r3, #128	; 0x80
1a0012c0:	6023      	str	r3, [r4, #0]
1a0012c2:	2300      	movs	r3, #0
1a0012c4:	60a3      	str	r3, [r4, #8]
1a0012c6:	60e3      	str	r3, [r4, #12]
1a0012c8:	fbb5 f3f0 	udiv	r3, r5, r0
1a0012cc:	6123      	str	r3, [r4, #16]
1a0012ce:	4a14      	ldr	r2, [pc, #80]	; (1a001320 <Chip_Clock_CalcMainPLLValue+0x7c>)
1a0012d0:	4295      	cmp	r5, r2
1a0012d2:	d903      	bls.n	1a0012dc <Chip_Clock_CalcMainPLLValue+0x38>
1a0012d4:	fb03 f000 	mul.w	r0, r3, r0
1a0012d8:	42a8      	cmp	r0, r5
1a0012da:	d007      	beq.n	1a0012ec <Chip_Clock_CalcMainPLLValue+0x48>
1a0012dc:	4621      	mov	r1, r4
1a0012de:	4628      	mov	r0, r5
1a0012e0:	f7ff fe96 	bl	1a001010 <pll_get_frac>
1a0012e4:	68a3      	ldr	r3, [r4, #8]
1a0012e6:	b18b      	cbz	r3, 1a00130c <Chip_Clock_CalcMainPLLValue+0x68>
1a0012e8:	3b01      	subs	r3, #1
1a0012ea:	60a3      	str	r3, [r4, #8]
1a0012ec:	6923      	ldr	r3, [r4, #16]
1a0012ee:	b183      	cbz	r3, 1a001312 <Chip_Clock_CalcMainPLLValue+0x6e>
1a0012f0:	68e2      	ldr	r2, [r4, #12]
1a0012f2:	b10a      	cbz	r2, 1a0012f8 <Chip_Clock_CalcMainPLLValue+0x54>
1a0012f4:	3a01      	subs	r2, #1
1a0012f6:	60e2      	str	r2, [r4, #12]
1a0012f8:	3b01      	subs	r3, #1
1a0012fa:	6123      	str	r3, [r4, #16]
1a0012fc:	2000      	movs	r0, #0
1a0012fe:	bd38      	pop	{r3, r4, r5, pc}
1a001300:	f04f 30ff 	mov.w	r0, #4294967295
1a001304:	e7fb      	b.n	1a0012fe <Chip_Clock_CalcMainPLLValue+0x5a>
1a001306:	f04f 30ff 	mov.w	r0, #4294967295
1a00130a:	e7f8      	b.n	1a0012fe <Chip_Clock_CalcMainPLLValue+0x5a>
1a00130c:	f04f 30ff 	mov.w	r0, #4294967295
1a001310:	e7f5      	b.n	1a0012fe <Chip_Clock_CalcMainPLLValue+0x5a>
1a001312:	f04f 30ff 	mov.w	r0, #4294967295
1a001316:	e7f2      	b.n	1a0012fe <Chip_Clock_CalcMainPLLValue+0x5a>
1a001318:	ff6b3a10 	.word	0xff6b3a10
1a00131c:	0b940510 	.word	0x0b940510
1a001320:	094c5eff 	.word	0x094c5eff

1a001324 <Chip_Clock_GetMainPLLHz>:
1a001324:	b530      	push	{r4, r5, lr}
1a001326:	b083      	sub	sp, #12
1a001328:	4d17      	ldr	r5, [pc, #92]	; (1a001388 <Chip_Clock_GetMainPLLHz+0x64>)
1a00132a:	6c6c      	ldr	r4, [r5, #68]	; 0x44
1a00132c:	f3c4 6003 	ubfx	r0, r4, #24, #4
1a001330:	f7ff ff5c 	bl	1a0011ec <Chip_Clock_GetClockInputHz>
1a001334:	4b15      	ldr	r3, [pc, #84]	; (1a00138c <Chip_Clock_GetMainPLLHz+0x68>)
1a001336:	681b      	ldr	r3, [r3, #0]
1a001338:	9301      	str	r3, [sp, #4]
1a00133a:	6c2b      	ldr	r3, [r5, #64]	; 0x40
1a00133c:	f013 0f01 	tst.w	r3, #1
1a001340:	d020      	beq.n	1a001384 <Chip_Clock_GetMainPLLHz+0x60>
1a001342:	f3c4 4307 	ubfx	r3, r4, #16, #8
1a001346:	f3c4 3201 	ubfx	r2, r4, #12, #2
1a00134a:	f3c4 2101 	ubfx	r1, r4, #8, #2
1a00134e:	f3c4 1580 	ubfx	r5, r4, #6, #1
1a001352:	3301      	adds	r3, #1
1a001354:	3201      	adds	r2, #1
1a001356:	f10d 0c08 	add.w	ip, sp, #8
1a00135a:	4461      	add	r1, ip
1a00135c:	f811 1c04 	ldrb.w	r1, [r1, #-4]
1a001360:	f014 0f80 	tst.w	r4, #128	; 0x80
1a001364:	d108      	bne.n	1a001378 <Chip_Clock_GetMainPLLHz+0x54>
1a001366:	b93d      	cbnz	r5, 1a001378 <Chip_Clock_GetMainPLLHz+0x54>
1a001368:	0049      	lsls	r1, r1, #1
1a00136a:	fbb3 f3f1 	udiv	r3, r3, r1
1a00136e:	fbb0 f0f2 	udiv	r0, r0, r2
1a001372:	fb00 f003 	mul.w	r0, r0, r3
1a001376:	e003      	b.n	1a001380 <Chip_Clock_GetMainPLLHz+0x5c>
1a001378:	fbb0 f0f2 	udiv	r0, r0, r2
1a00137c:	fb03 f000 	mul.w	r0, r3, r0
1a001380:	b003      	add	sp, #12
1a001382:	bd30      	pop	{r4, r5, pc}
1a001384:	2000      	movs	r0, #0
1a001386:	e7fb      	b.n	1a001380 <Chip_Clock_GetMainPLLHz+0x5c>
1a001388:	40050000 	.word	0x40050000
1a00138c:	1a0031dc 	.word	0x1a0031dc

1a001390 <Chip_Clock_GetDivRate>:
1a001390:	b538      	push	{r3, r4, r5, lr}
1a001392:	460c      	mov	r4, r1
1a001394:	4608      	mov	r0, r1
1a001396:	f7ff ff0d 	bl	1a0011b4 <Chip_Clock_GetDividerSource>
1a00139a:	4605      	mov	r5, r0
1a00139c:	4620      	mov	r0, r4
1a00139e:	f7ff ff17 	bl	1a0011d0 <Chip_Clock_GetDividerDivisor>
1a0013a2:	4604      	mov	r4, r0
1a0013a4:	4628      	mov	r0, r5
1a0013a6:	f7ff ff21 	bl	1a0011ec <Chip_Clock_GetClockInputHz>
1a0013aa:	3401      	adds	r4, #1
1a0013ac:	fbb0 f0f4 	udiv	r0, r0, r4
1a0013b0:	bd38      	pop	{r3, r4, r5, pc}
1a0013b2:	Address 0x1a0013b2 is out of bounds.


1a0013b4 <Chip_Clock_SetBaseClock>:
1a0013b4:	b430      	push	{r4, r5}
1a0013b6:	f100 0416 	add.w	r4, r0, #22
1a0013ba:	00a4      	lsls	r4, r4, #2
1a0013bc:	f104 4480 	add.w	r4, r4, #1073741824	; 0x40000000
1a0013c0:	f504 24a0 	add.w	r4, r4, #327680	; 0x50000
1a0013c4:	6864      	ldr	r4, [r4, #4]
1a0013c6:	281b      	cmp	r0, #27
1a0013c8:	d813      	bhi.n	1a0013f2 <Chip_Clock_SetBaseClock+0x3e>
1a0013ca:	2911      	cmp	r1, #17
1a0013cc:	d01a      	beq.n	1a001404 <Chip_Clock_SetBaseClock+0x50>
1a0013ce:	4d0e      	ldr	r5, [pc, #56]	; (1a001408 <Chip_Clock_SetBaseClock+0x54>)
1a0013d0:	4025      	ands	r5, r4
1a0013d2:	b10a      	cbz	r2, 1a0013d8 <Chip_Clock_SetBaseClock+0x24>
1a0013d4:	f445 6500 	orr.w	r5, r5, #2048	; 0x800
1a0013d8:	b10b      	cbz	r3, 1a0013de <Chip_Clock_SetBaseClock+0x2a>
1a0013da:	f045 0501 	orr.w	r5, r5, #1
1a0013de:	ea45 6501 	orr.w	r5, r5, r1, lsl #24
1a0013e2:	3016      	adds	r0, #22
1a0013e4:	0080      	lsls	r0, r0, #2
1a0013e6:	f100 4080 	add.w	r0, r0, #1073741824	; 0x40000000
1a0013ea:	f500 20a0 	add.w	r0, r0, #327680	; 0x50000
1a0013ee:	6045      	str	r5, [r0, #4]
1a0013f0:	e008      	b.n	1a001404 <Chip_Clock_SetBaseClock+0x50>
1a0013f2:	f044 0401 	orr.w	r4, r4, #1
1a0013f6:	3016      	adds	r0, #22
1a0013f8:	0080      	lsls	r0, r0, #2
1a0013fa:	f100 4080 	add.w	r0, r0, #1073741824	; 0x40000000
1a0013fe:	f500 20a0 	add.w	r0, r0, #327680	; 0x50000
1a001402:	6044      	str	r4, [r0, #4]
1a001404:	bc30      	pop	{r4, r5}
1a001406:	4770      	bx	lr
1a001408:	e0fff7fe 	.word	0xe0fff7fe

1a00140c <Chip_Clock_EnableBaseClock>:
1a00140c:	281b      	cmp	r0, #27
1a00140e:	d809      	bhi.n	1a001424 <Chip_Clock_EnableBaseClock+0x18>
1a001410:	3016      	adds	r0, #22
1a001412:	0080      	lsls	r0, r0, #2
1a001414:	f100 4080 	add.w	r0, r0, #1073741824	; 0x40000000
1a001418:	f500 20a0 	add.w	r0, r0, #327680	; 0x50000
1a00141c:	6843      	ldr	r3, [r0, #4]
1a00141e:	f023 0301 	bic.w	r3, r3, #1
1a001422:	6043      	str	r3, [r0, #4]
1a001424:	4770      	bx	lr

1a001426 <Chip_Clock_GetBaseClock>:
1a001426:	281b      	cmp	r0, #27
1a001428:	d80c      	bhi.n	1a001444 <Chip_Clock_GetBaseClock+0x1e>
1a00142a:	3016      	adds	r0, #22
1a00142c:	0080      	lsls	r0, r0, #2
1a00142e:	f100 4080 	add.w	r0, r0, #1073741824	; 0x40000000
1a001432:	f500 20a0 	add.w	r0, r0, #327680	; 0x50000
1a001436:	6840      	ldr	r0, [r0, #4]
1a001438:	f010 0f01 	tst.w	r0, #1
1a00143c:	d104      	bne.n	1a001448 <Chip_Clock_GetBaseClock+0x22>
1a00143e:	f3c0 6004 	ubfx	r0, r0, #24, #5
1a001442:	4770      	bx	lr
1a001444:	2011      	movs	r0, #17
1a001446:	4770      	bx	lr
1a001448:	2011      	movs	r0, #17
1a00144a:	4770      	bx	lr

1a00144c <Chip_Clock_GetBaseClocktHz>:
1a00144c:	b508      	push	{r3, lr}
1a00144e:	f7ff ffea 	bl	1a001426 <Chip_Clock_GetBaseClock>
1a001452:	f7ff fecb 	bl	1a0011ec <Chip_Clock_GetClockInputHz>
1a001456:	bd08      	pop	{r3, pc}

1a001458 <Chip_Clock_EnableOpts>:
1a001458:	b971      	cbnz	r1, 1a001478 <Chip_Clock_EnableOpts+0x20>
1a00145a:	2101      	movs	r1, #1
1a00145c:	b10a      	cbz	r2, 1a001462 <Chip_Clock_EnableOpts+0xa>
1a00145e:	f041 0104 	orr.w	r1, r1, #4
1a001462:	2b02      	cmp	r3, #2
1a001464:	d00a      	beq.n	1a00147c <Chip_Clock_EnableOpts+0x24>
1a001466:	f5b0 7fa1 	cmp.w	r0, #322	; 0x142
1a00146a:	d30a      	bcc.n	1a001482 <Chip_Clock_EnableOpts+0x2a>
1a00146c:	f5a0 7091 	sub.w	r0, r0, #290	; 0x122
1a001470:	4b06      	ldr	r3, [pc, #24]	; (1a00148c <Chip_Clock_EnableOpts+0x34>)
1a001472:	f843 1030 	str.w	r1, [r3, r0, lsl #3]
1a001476:	4770      	bx	lr
1a001478:	2103      	movs	r1, #3
1a00147a:	e7ef      	b.n	1a00145c <Chip_Clock_EnableOpts+0x4>
1a00147c:	f041 0120 	orr.w	r1, r1, #32
1a001480:	e7f1      	b.n	1a001466 <Chip_Clock_EnableOpts+0xe>
1a001482:	3020      	adds	r0, #32
1a001484:	4b02      	ldr	r3, [pc, #8]	; (1a001490 <Chip_Clock_EnableOpts+0x38>)
1a001486:	f843 1030 	str.w	r1, [r3, r0, lsl #3]
1a00148a:	4770      	bx	lr
1a00148c:	40052000 	.word	0x40052000
1a001490:	40051000 	.word	0x40051000

1a001494 <Chip_Clock_Enable>:
1a001494:	f5b0 7fa1 	cmp.w	r0, #322	; 0x142
1a001498:	d309      	bcc.n	1a0014ae <Chip_Clock_Enable+0x1a>
1a00149a:	4a09      	ldr	r2, [pc, #36]	; (1a0014c0 <Chip_Clock_Enable+0x2c>)
1a00149c:	f5a0 7091 	sub.w	r0, r0, #290	; 0x122
1a0014a0:	f852 3030 	ldr.w	r3, [r2, r0, lsl #3]
1a0014a4:	f043 0301 	orr.w	r3, r3, #1
1a0014a8:	f842 3030 	str.w	r3, [r2, r0, lsl #3]
1a0014ac:	4770      	bx	lr
1a0014ae:	4a05      	ldr	r2, [pc, #20]	; (1a0014c4 <Chip_Clock_Enable+0x30>)
1a0014b0:	3020      	adds	r0, #32
1a0014b2:	f852 3030 	ldr.w	r3, [r2, r0, lsl #3]
1a0014b6:	f043 0301 	orr.w	r3, r3, #1
1a0014ba:	f842 3030 	str.w	r3, [r2, r0, lsl #3]
1a0014be:	4770      	bx	lr
1a0014c0:	40052000 	.word	0x40052000
1a0014c4:	40051000 	.word	0x40051000

1a0014c8 <Chip_Clock_Disable>:
1a0014c8:	f5b0 7fa1 	cmp.w	r0, #322	; 0x142
1a0014cc:	d309      	bcc.n	1a0014e2 <Chip_Clock_Disable+0x1a>
1a0014ce:	4a09      	ldr	r2, [pc, #36]	; (1a0014f4 <Chip_Clock_Disable+0x2c>)
1a0014d0:	f5a0 7091 	sub.w	r0, r0, #290	; 0x122
1a0014d4:	f852 3030 	ldr.w	r3, [r2, r0, lsl #3]
1a0014d8:	f023 0301 	bic.w	r3, r3, #1
1a0014dc:	f842 3030 	str.w	r3, [r2, r0, lsl #3]
1a0014e0:	4770      	bx	lr
1a0014e2:	4a05      	ldr	r2, [pc, #20]	; (1a0014f8 <Chip_Clock_Disable+0x30>)
1a0014e4:	3020      	adds	r0, #32
1a0014e6:	f852 3030 	ldr.w	r3, [r2, r0, lsl #3]
1a0014ea:	f023 0301 	bic.w	r3, r3, #1
1a0014ee:	f842 3030 	str.w	r3, [r2, r0, lsl #3]
1a0014f2:	4770      	bx	lr
1a0014f4:	40052000 	.word	0x40052000
1a0014f8:	40051000 	.word	0x40051000

1a0014fc <Chip_Clock_GetRate>:
1a0014fc:	b510      	push	{r4, lr}
1a0014fe:	f5b0 7fa1 	cmp.w	r0, #322	; 0x142
1a001502:	d309      	bcc.n	1a001518 <Chip_Clock_GetRate+0x1c>
1a001504:	f5a0 7391 	sub.w	r3, r0, #290	; 0x122
1a001508:	4a0d      	ldr	r2, [pc, #52]	; (1a001540 <Chip_Clock_GetRate+0x44>)
1a00150a:	f852 4033 	ldr.w	r4, [r2, r3, lsl #3]
1a00150e:	f014 0f01 	tst.w	r4, #1
1a001512:	d107      	bne.n	1a001524 <Chip_Clock_GetRate+0x28>
1a001514:	2000      	movs	r0, #0
1a001516:	bd10      	pop	{r4, pc}
1a001518:	f100 0320 	add.w	r3, r0, #32
1a00151c:	4a09      	ldr	r2, [pc, #36]	; (1a001544 <Chip_Clock_GetRate+0x48>)
1a00151e:	f852 4033 	ldr.w	r4, [r2, r3, lsl #3]
1a001522:	e7f4      	b.n	1a00150e <Chip_Clock_GetRate+0x12>
1a001524:	f7ff fdfa 	bl	1a00111c <Chip_Clock_FindBaseClock>
1a001528:	f7ff ff90 	bl	1a00144c <Chip_Clock_GetBaseClocktHz>
1a00152c:	f014 0fe0 	tst.w	r4, #224	; 0xe0
1a001530:	d103      	bne.n	1a00153a <Chip_Clock_GetRate+0x3e>
1a001532:	2301      	movs	r3, #1
1a001534:	fbb0 f0f3 	udiv	r0, r0, r3
1a001538:	e7ed      	b.n	1a001516 <Chip_Clock_GetRate+0x1a>
1a00153a:	2302      	movs	r3, #2
1a00153c:	e7fa      	b.n	1a001534 <Chip_Clock_GetRate+0x38>
1a00153e:	bf00      	nop
1a001540:	40052000 	.word	0x40052000
1a001544:	40051000 	.word	0x40051000

1a001548 <Chip_Clock_SetupPLL>:
1a001548:	b410      	push	{r4}
1a00154a:	6813      	ldr	r3, [r2, #0]
1a00154c:	ea43 6000 	orr.w	r0, r3, r0, lsl #24
1a001550:	4b0b      	ldr	r3, [pc, #44]	; (1a001580 <Chip_Clock_SetupPLL+0x38>)
1a001552:	eb03 1401 	add.w	r4, r3, r1, lsl #4
1a001556:	6220      	str	r0, [r4, #32]
1a001558:	6850      	ldr	r0, [r2, #4]
1a00155a:	1c8c      	adds	r4, r1, #2
1a00155c:	eb03 1304 	add.w	r3, r3, r4, lsl #4
1a001560:	6058      	str	r0, [r3, #4]
1a001562:	6890      	ldr	r0, [r2, #8]
1a001564:	6098      	str	r0, [r3, #8]
1a001566:	2901      	cmp	r1, #1
1a001568:	d006      	beq.n	1a001578 <Chip_Clock_SetupPLL+0x30>
1a00156a:	6912      	ldr	r2, [r2, #16]
1a00156c:	4b05      	ldr	r3, [pc, #20]	; (1a001584 <Chip_Clock_SetupPLL+0x3c>)
1a00156e:	f843 2021 	str.w	r2, [r3, r1, lsl #2]
1a001572:	f85d 4b04 	ldr.w	r4, [sp], #4
1a001576:	4770      	bx	lr
1a001578:	68d0      	ldr	r0, [r2, #12]
1a00157a:	4b01      	ldr	r3, [pc, #4]	; (1a001580 <Chip_Clock_SetupPLL+0x38>)
1a00157c:	63d8      	str	r0, [r3, #60]	; 0x3c
1a00157e:	e7f4      	b.n	1a00156a <Chip_Clock_SetupPLL+0x22>
1a001580:	40050000 	.word	0x40050000
1a001584:	10000118 	.word	0x10000118

1a001588 <Chip_Clock_EnablePLL>:
1a001588:	0100      	lsls	r0, r0, #4
1a00158a:	f100 4080 	add.w	r0, r0, #1073741824	; 0x40000000
1a00158e:	f500 20a0 	add.w	r0, r0, #327680	; 0x50000
1a001592:	6a03      	ldr	r3, [r0, #32]
1a001594:	f023 0301 	bic.w	r3, r3, #1
1a001598:	6203      	str	r3, [r0, #32]
1a00159a:	4770      	bx	lr

1a00159c <Chip_Clock_GetPLLStatus>:
1a00159c:	0100      	lsls	r0, r0, #4
1a00159e:	f100 4080 	add.w	r0, r0, #1073741824	; 0x40000000
1a0015a2:	f500 20a0 	add.w	r0, r0, #327680	; 0x50000
1a0015a6:	69c0      	ldr	r0, [r0, #28]
1a0015a8:	4770      	bx	lr
1a0015aa:	Address 0x1a0015aa is out of bounds.


1a0015ac <Chip_UART_GetIndex>:
1a0015ac:	4b09      	ldr	r3, [pc, #36]	; (1a0015d4 <Chip_UART_GetIndex+0x28>)
1a0015ae:	4298      	cmp	r0, r3
1a0015b0:	d009      	beq.n	1a0015c6 <Chip_UART_GetIndex+0x1a>
1a0015b2:	f503 5380 	add.w	r3, r3, #4096	; 0x1000
1a0015b6:	4298      	cmp	r0, r3
1a0015b8:	d007      	beq.n	1a0015ca <Chip_UART_GetIndex+0x1e>
1a0015ba:	f5a3 2380 	sub.w	r3, r3, #262144	; 0x40000
1a0015be:	4298      	cmp	r0, r3
1a0015c0:	d005      	beq.n	1a0015ce <Chip_UART_GetIndex+0x22>
1a0015c2:	2000      	movs	r0, #0
1a0015c4:	4770      	bx	lr
1a0015c6:	2002      	movs	r0, #2
1a0015c8:	4770      	bx	lr
1a0015ca:	2003      	movs	r0, #3
1a0015cc:	4770      	bx	lr
1a0015ce:	2001      	movs	r0, #1
1a0015d0:	4770      	bx	lr
1a0015d2:	bf00      	nop
1a0015d4:	400c1000 	.word	0x400c1000

1a0015d8 <Chip_UART_Init>:
1a0015d8:	b530      	push	{r4, r5, lr}
1a0015da:	b083      	sub	sp, #12
1a0015dc:	4604      	mov	r4, r0
1a0015de:	f7ff ffe5 	bl	1a0015ac <Chip_UART_GetIndex>
1a0015e2:	2301      	movs	r3, #1
1a0015e4:	461a      	mov	r2, r3
1a0015e6:	4619      	mov	r1, r3
1a0015e8:	4d0e      	ldr	r5, [pc, #56]	; (1a001624 <Chip_UART_Init+0x4c>)
1a0015ea:	f835 0010 	ldrh.w	r0, [r5, r0, lsl #1]
1a0015ee:	f7ff ff33 	bl	1a001458 <Chip_Clock_EnableOpts>
1a0015f2:	2307      	movs	r3, #7
1a0015f4:	60a3      	str	r3, [r4, #8]
1a0015f6:	2300      	movs	r3, #0
1a0015f8:	65e3      	str	r3, [r4, #92]	; 0x5c
1a0015fa:	6063      	str	r3, [r4, #4]
1a0015fc:	60e3      	str	r3, [r4, #12]
1a0015fe:	6223      	str	r3, [r4, #32]
1a001600:	64e3      	str	r3, [r4, #76]	; 0x4c
1a001602:	6563      	str	r3, [r4, #84]	; 0x54
1a001604:	6523      	str	r3, [r4, #80]	; 0x50
1a001606:	4b08      	ldr	r3, [pc, #32]	; (1a001628 <Chip_UART_Init+0x50>)
1a001608:	429c      	cmp	r4, r3
1a00160a:	d006      	beq.n	1a00161a <Chip_UART_Init+0x42>
1a00160c:	2303      	movs	r3, #3
1a00160e:	60e3      	str	r3, [r4, #12]
1a001610:	2310      	movs	r3, #16
1a001612:	62a3      	str	r3, [r4, #40]	; 0x28
1a001614:	9b01      	ldr	r3, [sp, #4]
1a001616:	b003      	add	sp, #12
1a001618:	bd30      	pop	{r4, r5, pc}
1a00161a:	2300      	movs	r3, #0
1a00161c:	6123      	str	r3, [r4, #16]
1a00161e:	69a3      	ldr	r3, [r4, #24]
1a001620:	9301      	str	r3, [sp, #4]
1a001622:	e7f3      	b.n	1a00160c <Chip_UART_Init+0x34>
1a001624:	1a00325c 	.word	0x1a00325c
1a001628:	40082000 	.word	0x40082000

1a00162c <Chip_UART_Send>:
1a00162c:	2300      	movs	r3, #0
1a00162e:	4293      	cmp	r3, r2
1a001630:	da0e      	bge.n	1a001650 <Chip_UART_Send+0x24>
1a001632:	b410      	push	{r4}
1a001634:	6944      	ldr	r4, [r0, #20]
1a001636:	f014 0f20 	tst.w	r4, #32
1a00163a:	d005      	beq.n	1a001648 <Chip_UART_Send+0x1c>
1a00163c:	f811 4b01 	ldrb.w	r4, [r1], #1
1a001640:	6004      	str	r4, [r0, #0]
1a001642:	3301      	adds	r3, #1
1a001644:	4293      	cmp	r3, r2
1a001646:	dbf5      	blt.n	1a001634 <Chip_UART_Send+0x8>
1a001648:	4618      	mov	r0, r3
1a00164a:	f85d 4b04 	ldr.w	r4, [sp], #4
1a00164e:	4770      	bx	lr
1a001650:	4618      	mov	r0, r3
1a001652:	4770      	bx	lr

1a001654 <Chip_UART_SetBaud>:
1a001654:	b538      	push	{r3, r4, r5, lr}
1a001656:	4605      	mov	r5, r0
1a001658:	460c      	mov	r4, r1
1a00165a:	f7ff ffa7 	bl	1a0015ac <Chip_UART_GetIndex>
1a00165e:	4b0c      	ldr	r3, [pc, #48]	; (1a001690 <Chip_UART_SetBaud+0x3c>)
1a001660:	f833 0010 	ldrh.w	r0, [r3, r0, lsl #1]
1a001664:	f7ff ff4a 	bl	1a0014fc <Chip_Clock_GetRate>
1a001668:	0123      	lsls	r3, r4, #4
1a00166a:	fbb0 f3f3 	udiv	r3, r0, r3
1a00166e:	b2d9      	uxtb	r1, r3
1a001670:	68ea      	ldr	r2, [r5, #12]
1a001672:	f042 0280 	orr.w	r2, r2, #128	; 0x80
1a001676:	60ea      	str	r2, [r5, #12]
1a001678:	6029      	str	r1, [r5, #0]
1a00167a:	f3c3 2207 	ubfx	r2, r3, #8, #8
1a00167e:	606a      	str	r2, [r5, #4]
1a001680:	68ea      	ldr	r2, [r5, #12]
1a001682:	f022 0280 	bic.w	r2, r2, #128	; 0x80
1a001686:	60ea      	str	r2, [r5, #12]
1a001688:	fbb0 f0f3 	udiv	r0, r0, r3
1a00168c:	0900      	lsrs	r0, r0, #4
1a00168e:	bd38      	pop	{r3, r4, r5, pc}
1a001690:	1a003254 	.word	0x1a003254

1a001694 <Chip_UART_SetBaudFDR>:
1a001694:	e92d 4ff0 	stmdb	sp!, {r4, r5, r6, r7, r8, r9, sl, fp, lr}
1a001698:	b083      	sub	sp, #12
1a00169a:	9001      	str	r0, [sp, #4]
1a00169c:	4688      	mov	r8, r1
1a00169e:	f7ff ff85 	bl	1a0015ac <Chip_UART_GetIndex>
1a0016a2:	4b32      	ldr	r3, [pc, #200]	; (1a00176c <Chip_UART_SetBaudFDR+0xd8>)
1a0016a4:	f833 0010 	ldrh.w	r0, [r3, r0, lsl #1]
1a0016a8:	f7ff ff28 	bl	1a0014fc <Chip_Clock_GetRate>
1a0016ac:	4606      	mov	r6, r0
1a0016ae:	f04f 37ff 	mov.w	r7, #4294967295
1a0016b2:	2401      	movs	r4, #1
1a0016b4:	f04f 0b00 	mov.w	fp, #0
1a0016b8:	46a2      	mov	sl, r4
1a0016ba:	46d9      	mov	r9, fp
1a0016bc:	e02a      	b.n	1a001714 <Chip_UART_SetBaudFDR+0x80>
1a0016be:	4242      	negs	r2, r0
1a0016c0:	1c4b      	adds	r3, r1, #1
1a0016c2:	e017      	b.n	1a0016f4 <Chip_UART_SetBaudFDR+0x60>
1a0016c4:	b30a      	cbz	r2, 1a00170a <Chip_UART_SetBaudFDR+0x76>
1a0016c6:	4617      	mov	r7, r2
1a0016c8:	46ab      	mov	fp, r5
1a0016ca:	46a2      	mov	sl, r4
1a0016cc:	4699      	mov	r9, r3
1a0016ce:	3501      	adds	r5, #1
1a0016d0:	42ac      	cmp	r4, r5
1a0016d2:	d91e      	bls.n	1a001712 <Chip_UART_SetBaudFDR+0x7e>
1a0016d4:	0933      	lsrs	r3, r6, #4
1a0016d6:	0730      	lsls	r0, r6, #28
1a0016d8:	fba4 0100 	umull	r0, r1, r4, r0
1a0016dc:	fb04 1103 	mla	r1, r4, r3, r1
1a0016e0:	1962      	adds	r2, r4, r5
1a0016e2:	fb08 f202 	mul.w	r2, r8, r2
1a0016e6:	2300      	movs	r3, #0
1a0016e8:	f000 fe64 	bl	1a0023b4 <__aeabi_uldivmod>
1a0016ec:	4602      	mov	r2, r0
1a0016ee:	460b      	mov	r3, r1
1a0016f0:	2800      	cmp	r0, #0
1a0016f2:	dbe4      	blt.n	1a0016be <Chip_UART_SetBaudFDR+0x2a>
1a0016f4:	4297      	cmp	r7, r2
1a0016f6:	d3ea      	bcc.n	1a0016ce <Chip_UART_SetBaudFDR+0x3a>
1a0016f8:	2b00      	cmp	r3, #0
1a0016fa:	d0e8      	beq.n	1a0016ce <Chip_UART_SetBaudFDR+0x3a>
1a0016fc:	0c19      	lsrs	r1, r3, #16
1a0016fe:	d1e6      	bne.n	1a0016ce <Chip_UART_SetBaudFDR+0x3a>
1a001700:	2b02      	cmp	r3, #2
1a001702:	d8df      	bhi.n	1a0016c4 <Chip_UART_SetBaudFDR+0x30>
1a001704:	2d00      	cmp	r5, #0
1a001706:	d0dd      	beq.n	1a0016c4 <Chip_UART_SetBaudFDR+0x30>
1a001708:	e7e1      	b.n	1a0016ce <Chip_UART_SetBaudFDR+0x3a>
1a00170a:	4617      	mov	r7, r2
1a00170c:	46ab      	mov	fp, r5
1a00170e:	46a2      	mov	sl, r4
1a001710:	4699      	mov	r9, r3
1a001712:	3401      	adds	r4, #1
1a001714:	b11f      	cbz	r7, 1a00171e <Chip_UART_SetBaudFDR+0x8a>
1a001716:	2c0f      	cmp	r4, #15
1a001718:	d801      	bhi.n	1a00171e <Chip_UART_SetBaudFDR+0x8a>
1a00171a:	2500      	movs	r5, #0
1a00171c:	e7d8      	b.n	1a0016d0 <Chip_UART_SetBaudFDR+0x3c>
1a00171e:	f1b9 0f00 	cmp.w	r9, #0
1a001722:	d01e      	beq.n	1a001762 <Chip_UART_SetBaudFDR+0xce>
1a001724:	9a01      	ldr	r2, [sp, #4]
1a001726:	4611      	mov	r1, r2
1a001728:	68d3      	ldr	r3, [r2, #12]
1a00172a:	f043 0380 	orr.w	r3, r3, #128	; 0x80
1a00172e:	60d3      	str	r3, [r2, #12]
1a001730:	fa5f f389 	uxtb.w	r3, r9
1a001734:	6013      	str	r3, [r2, #0]
1a001736:	f3c9 2307 	ubfx	r3, r9, #8, #8
1a00173a:	6053      	str	r3, [r2, #4]
1a00173c:	68d3      	ldr	r3, [r2, #12]
1a00173e:	f023 0380 	bic.w	r3, r3, #128	; 0x80
1a001742:	60d3      	str	r3, [r2, #12]
1a001744:	ea4f 130a 	mov.w	r3, sl, lsl #4
1a001748:	b2db      	uxtb	r3, r3
1a00174a:	f00b 020f 	and.w	r2, fp, #15
1a00174e:	4313      	orrs	r3, r2
1a001750:	628b      	str	r3, [r1, #40]	; 0x28
1a001752:	0933      	lsrs	r3, r6, #4
1a001754:	fb0a f303 	mul.w	r3, sl, r3
1a001758:	44da      	add	sl, fp
1a00175a:	fb09 f90a 	mul.w	r9, r9, sl
1a00175e:	fbb3 f9f9 	udiv	r9, r3, r9
1a001762:	4648      	mov	r0, r9
1a001764:	b003      	add	sp, #12
1a001766:	e8bd 8ff0 	ldmia.w	sp!, {r4, r5, r6, r7, r8, r9, sl, fp, pc}
1a00176a:	bf00      	nop
1a00176c:	1a003254 	.word	0x1a003254

1a001770 <SystemInit>:
1a001770:	b508      	push	{r3, lr}
1a001772:	4a0b      	ldr	r2, [pc, #44]	; (1a0017a0 <SystemInit+0x30>)
1a001774:	4b0b      	ldr	r3, [pc, #44]	; (1a0017a4 <SystemInit+0x34>)
1a001776:	609a      	str	r2, [r3, #8]
1a001778:	f503 730c 	add.w	r3, r3, #560	; 0x230
1a00177c:	691b      	ldr	r3, [r3, #16]
1a00177e:	f403 637f 	and.w	r3, r3, #4080	; 0xff0
1a001782:	2b20      	cmp	r3, #32
1a001784:	d004      	beq.n	1a001790 <SystemInit+0x20>
1a001786:	f7ff f857 	bl	1a000838 <Board_SystemInit>
1a00178a:	f7ff f961 	bl	1a000a50 <Board_Init>
1a00178e:	bd08      	pop	{r3, pc}
1a001790:	4a04      	ldr	r2, [pc, #16]	; (1a0017a4 <SystemInit+0x34>)
1a001792:	f8d2 3088 	ldr.w	r3, [r2, #136]	; 0x88
1a001796:	f443 0370 	orr.w	r3, r3, #15728640	; 0xf00000
1a00179a:	f8c2 3088 	str.w	r3, [r2, #136]	; 0x88
1a00179e:	e7f2      	b.n	1a001786 <SystemInit+0x16>
1a0017a0:	1a000000 	.word	0x1a000000
1a0017a4:	e000ed00 	.word	0xe000ed00

1a0017a8 <sleepUntilNextInterrupt>:
1a0017a8:	bf30      	wfi
1a0017aa:	4770      	bx	lr

1a0017ac <cyclesCounterInit>:
1a0017ac:	4b04      	ldr	r3, [pc, #16]	; (1a0017c0 <cyclesCounterInit+0x14>)
1a0017ae:	6018      	str	r0, [r3, #0]
1a0017b0:	4a04      	ldr	r2, [pc, #16]	; (1a0017c4 <cyclesCounterInit+0x18>)
1a0017b2:	6813      	ldr	r3, [r2, #0]
1a0017b4:	f043 0301 	orr.w	r3, r3, #1
1a0017b8:	6013      	str	r3, [r2, #0]
1a0017ba:	2001      	movs	r0, #1
1a0017bc:	4770      	bx	lr
1a0017be:	bf00      	nop
1a0017c0:	10000080 	.word	0x10000080
1a0017c4:	e0001000 	.word	0xe0001000

1a0017c8 <gpioObtainPinInit>:
1a0017c8:	b430      	push	{r4, r5}
1a0017ca:	4d0b      	ldr	r5, [pc, #44]	; (1a0017f8 <gpioObtainPinInit+0x30>)
1a0017cc:	eb00 0080 	add.w	r0, r0, r0, lsl #2
1a0017d0:	182c      	adds	r4, r5, r0
1a0017d2:	5628      	ldrsb	r0, [r5, r0]
1a0017d4:	7008      	strb	r0, [r1, #0]
1a0017d6:	f994 1001 	ldrsb.w	r1, [r4, #1]
1a0017da:	7011      	strb	r1, [r2, #0]
1a0017dc:	f994 2002 	ldrsb.w	r2, [r4, #2]
1a0017e0:	701a      	strb	r2, [r3, #0]
1a0017e2:	f994 2003 	ldrsb.w	r2, [r4, #3]
1a0017e6:	9b02      	ldr	r3, [sp, #8]
1a0017e8:	701a      	strb	r2, [r3, #0]
1a0017ea:	f994 2004 	ldrsb.w	r2, [r4, #4]
1a0017ee:	9b03      	ldr	r3, [sp, #12]
1a0017f0:	701a      	strb	r2, [r3, #0]
1a0017f2:	bc30      	pop	{r4, r5}
1a0017f4:	4770      	bx	lr
1a0017f6:	bf00      	nop
1a0017f8:	1a003264 	.word	0x1a003264

1a0017fc <gpioInit>:
1a0017fc:	f110 0f02 	cmn.w	r0, #2
1a001800:	f000 80c7 	beq.w	1a001992 <gpioInit+0x196>
1a001804:	f1b0 3fff 	cmp.w	r0, #4294967295
1a001808:	f000 80c5 	beq.w	1a001996 <gpioInit+0x19a>
1a00180c:	b570      	push	{r4, r5, r6, lr}
1a00180e:	b084      	sub	sp, #16
1a001810:	460c      	mov	r4, r1
1a001812:	2300      	movs	r3, #0
1a001814:	f88d 300f 	strb.w	r3, [sp, #15]
1a001818:	f88d 300e 	strb.w	r3, [sp, #14]
1a00181c:	f88d 300d 	strb.w	r3, [sp, #13]
1a001820:	f88d 300c 	strb.w	r3, [sp, #12]
1a001824:	f88d 300b 	strb.w	r3, [sp, #11]
1a001828:	f10d 030b 	add.w	r3, sp, #11
1a00182c:	9301      	str	r3, [sp, #4]
1a00182e:	ab03      	add	r3, sp, #12
1a001830:	9300      	str	r3, [sp, #0]
1a001832:	f10d 030d 	add.w	r3, sp, #13
1a001836:	f10d 020e 	add.w	r2, sp, #14
1a00183a:	f10d 010f 	add.w	r1, sp, #15
1a00183e:	f7ff ffc3 	bl	1a0017c8 <gpioObtainPinInit>
1a001842:	2c05      	cmp	r4, #5
1a001844:	f200 80a9 	bhi.w	1a00199a <gpioInit+0x19e>
1a001848:	e8df f004 	tbb	[pc, r4]
1a00184c:	45278109 	.word	0x45278109
1a001850:	0363      	.short	0x0363
1a001852:	4853      	ldr	r0, [pc, #332]	; (1a0019a0 <gpioInit+0x1a4>)
1a001854:	f7ff f9ba 	bl	1a000bcc <Chip_GPIO_Init>
1a001858:	2001      	movs	r0, #1
1a00185a:	b004      	add	sp, #16
1a00185c:	bd70      	pop	{r4, r5, r6, pc}
1a00185e:	f89d 100f 	ldrb.w	r1, [sp, #15]
1a001862:	f89d 300e 	ldrb.w	r3, [sp, #14]
1a001866:	f89d 200d 	ldrb.w	r2, [sp, #13]
1a00186a:	f042 02d0 	orr.w	r2, r2, #208	; 0xd0
1a00186e:	eb03 1341 	add.w	r3, r3, r1, lsl #5
1a001872:	494c      	ldr	r1, [pc, #304]	; (1a0019a4 <gpioInit+0x1a8>)
1a001874:	f841 2023 	str.w	r2, [r1, r3, lsl #2]
1a001878:	f89d 300c 	ldrb.w	r3, [sp, #12]
1a00187c:	f99d 200b 	ldrsb.w	r2, [sp, #11]
1a001880:	2001      	movs	r0, #1
1a001882:	fa00 f102 	lsl.w	r1, r0, r2
1a001886:	4c46      	ldr	r4, [pc, #280]	; (1a0019a0 <gpioInit+0x1a4>)
1a001888:	f503 6300 	add.w	r3, r3, #2048	; 0x800
1a00188c:	f854 2023 	ldr.w	r2, [r4, r3, lsl #2]
1a001890:	ea22 0201 	bic.w	r2, r2, r1
1a001894:	f844 2023 	str.w	r2, [r4, r3, lsl #2]
1a001898:	e7df      	b.n	1a00185a <gpioInit+0x5e>
1a00189a:	f89d 100f 	ldrb.w	r1, [sp, #15]
1a00189e:	f89d 300e 	ldrb.w	r3, [sp, #14]
1a0018a2:	f89d 200d 	ldrb.w	r2, [sp, #13]
1a0018a6:	f042 02c0 	orr.w	r2, r2, #192	; 0xc0
1a0018aa:	eb03 1341 	add.w	r3, r3, r1, lsl #5
1a0018ae:	493d      	ldr	r1, [pc, #244]	; (1a0019a4 <gpioInit+0x1a8>)
1a0018b0:	f841 2023 	str.w	r2, [r1, r3, lsl #2]
1a0018b4:	f89d 300c 	ldrb.w	r3, [sp, #12]
1a0018b8:	f99d 200b 	ldrsb.w	r2, [sp, #11]
1a0018bc:	2001      	movs	r0, #1
1a0018be:	fa00 f102 	lsl.w	r1, r0, r2
1a0018c2:	4c37      	ldr	r4, [pc, #220]	; (1a0019a0 <gpioInit+0x1a4>)
1a0018c4:	f503 6300 	add.w	r3, r3, #2048	; 0x800
1a0018c8:	f854 2023 	ldr.w	r2, [r4, r3, lsl #2]
1a0018cc:	ea22 0201 	bic.w	r2, r2, r1
1a0018d0:	f844 2023 	str.w	r2, [r4, r3, lsl #2]
1a0018d4:	e7c1      	b.n	1a00185a <gpioInit+0x5e>
1a0018d6:	f89d 100f 	ldrb.w	r1, [sp, #15]
1a0018da:	f89d 300e 	ldrb.w	r3, [sp, #14]
1a0018de:	f89d 200d 	ldrb.w	r2, [sp, #13]
1a0018e2:	f042 02d8 	orr.w	r2, r2, #216	; 0xd8
1a0018e6:	eb03 1341 	add.w	r3, r3, r1, lsl #5
1a0018ea:	492e      	ldr	r1, [pc, #184]	; (1a0019a4 <gpioInit+0x1a8>)
1a0018ec:	f841 2023 	str.w	r2, [r1, r3, lsl #2]
1a0018f0:	f89d 300c 	ldrb.w	r3, [sp, #12]
1a0018f4:	f99d 200b 	ldrsb.w	r2, [sp, #11]
1a0018f8:	2001      	movs	r0, #1
1a0018fa:	fa00 f102 	lsl.w	r1, r0, r2
1a0018fe:	4c28      	ldr	r4, [pc, #160]	; (1a0019a0 <gpioInit+0x1a4>)
1a001900:	f503 6300 	add.w	r3, r3, #2048	; 0x800
1a001904:	f854 2023 	ldr.w	r2, [r4, r3, lsl #2]
1a001908:	ea22 0201 	bic.w	r2, r2, r1
1a00190c:	f844 2023 	str.w	r2, [r4, r3, lsl #2]
1a001910:	e7a3      	b.n	1a00185a <gpioInit+0x5e>
1a001912:	f89d 100f 	ldrb.w	r1, [sp, #15]
1a001916:	f89d 300e 	ldrb.w	r3, [sp, #14]
1a00191a:	f89d 200d 	ldrb.w	r2, [sp, #13]
1a00191e:	f042 02c8 	orr.w	r2, r2, #200	; 0xc8
1a001922:	eb03 1341 	add.w	r3, r3, r1, lsl #5
1a001926:	491f      	ldr	r1, [pc, #124]	; (1a0019a4 <gpioInit+0x1a8>)
1a001928:	f841 2023 	str.w	r2, [r1, r3, lsl #2]
1a00192c:	f89d 300c 	ldrb.w	r3, [sp, #12]
1a001930:	f99d 200b 	ldrsb.w	r2, [sp, #11]
1a001934:	2001      	movs	r0, #1
1a001936:	fa00 f102 	lsl.w	r1, r0, r2
1a00193a:	4c19      	ldr	r4, [pc, #100]	; (1a0019a0 <gpioInit+0x1a4>)
1a00193c:	f503 6300 	add.w	r3, r3, #2048	; 0x800
1a001940:	f854 2023 	ldr.w	r2, [r4, r3, lsl #2]
1a001944:	ea22 0201 	bic.w	r2, r2, r1
1a001948:	f844 2023 	str.w	r2, [r4, r3, lsl #2]
1a00194c:	e785      	b.n	1a00185a <gpioInit+0x5e>
1a00194e:	f89d 100f 	ldrb.w	r1, [sp, #15]
1a001952:	f89d 300e 	ldrb.w	r3, [sp, #14]
1a001956:	f89d 200d 	ldrb.w	r2, [sp, #13]
1a00195a:	f042 02d0 	orr.w	r2, r2, #208	; 0xd0
1a00195e:	eb03 1341 	add.w	r3, r3, r1, lsl #5
1a001962:	4910      	ldr	r1, [pc, #64]	; (1a0019a4 <gpioInit+0x1a8>)
1a001964:	f841 2023 	str.w	r2, [r1, r3, lsl #2]
1a001968:	f89d 400c 	ldrb.w	r4, [sp, #12]
1a00196c:	f99d 200b 	ldrsb.w	r2, [sp, #11]
1a001970:	2001      	movs	r0, #1
1a001972:	fa00 f102 	lsl.w	r1, r0, r2
1a001976:	4b0a      	ldr	r3, [pc, #40]	; (1a0019a0 <gpioInit+0x1a4>)
1a001978:	f504 6500 	add.w	r5, r4, #2048	; 0x800
1a00197c:	f853 6025 	ldr.w	r6, [r3, r5, lsl #2]
1a001980:	4331      	orrs	r1, r6
1a001982:	f843 1025 	str.w	r1, [r3, r5, lsl #2]
1a001986:	b2d2      	uxtb	r2, r2
1a001988:	eb03 1344 	add.w	r3, r3, r4, lsl #5
1a00198c:	2100      	movs	r1, #0
1a00198e:	5499      	strb	r1, [r3, r2]
1a001990:	e763      	b.n	1a00185a <gpioInit+0x5e>
1a001992:	2000      	movs	r0, #0
1a001994:	4770      	bx	lr
1a001996:	2000      	movs	r0, #0
1a001998:	4770      	bx	lr
1a00199a:	2000      	movs	r0, #0
1a00199c:	e75d      	b.n	1a00185a <gpioInit+0x5e>
1a00199e:	bf00      	nop
1a0019a0:	400f4000 	.word	0x400f4000
1a0019a4:	40086000 	.word	0x40086000

1a0019a8 <gpioWrite>:
1a0019a8:	f110 0f02 	cmn.w	r0, #2
1a0019ac:	d02d      	beq.n	1a001a0a <gpioWrite+0x62>
1a0019ae:	f1b0 3fff 	cmp.w	r0, #4294967295
1a0019b2:	d02c      	beq.n	1a001a0e <gpioWrite+0x66>
1a0019b4:	b510      	push	{r4, lr}
1a0019b6:	b084      	sub	sp, #16
1a0019b8:	460c      	mov	r4, r1
1a0019ba:	2300      	movs	r3, #0
1a0019bc:	f88d 300f 	strb.w	r3, [sp, #15]
1a0019c0:	f88d 300e 	strb.w	r3, [sp, #14]
1a0019c4:	f88d 300d 	strb.w	r3, [sp, #13]
1a0019c8:	f88d 300c 	strb.w	r3, [sp, #12]
1a0019cc:	f88d 300b 	strb.w	r3, [sp, #11]
1a0019d0:	f10d 030b 	add.w	r3, sp, #11
1a0019d4:	9301      	str	r3, [sp, #4]
1a0019d6:	ab03      	add	r3, sp, #12
1a0019d8:	9300      	str	r3, [sp, #0]
1a0019da:	f10d 030d 	add.w	r3, sp, #13
1a0019de:	f10d 020e 	add.w	r2, sp, #14
1a0019e2:	f10d 010f 	add.w	r1, sp, #15
1a0019e6:	f7ff feef 	bl	1a0017c8 <gpioObtainPinInit>
1a0019ea:	f89d 300c 	ldrb.w	r3, [sp, #12]
1a0019ee:	f89d 200b 	ldrb.w	r2, [sp, #11]
1a0019f2:	1c21      	adds	r1, r4, #0
1a0019f4:	bf18      	it	ne
1a0019f6:	2101      	movne	r1, #1
1a0019f8:	015b      	lsls	r3, r3, #5
1a0019fa:	f103 2340 	add.w	r3, r3, #1073758208	; 0x40004000
1a0019fe:	f503 2370 	add.w	r3, r3, #983040	; 0xf0000
1a001a02:	5499      	strb	r1, [r3, r2]
1a001a04:	2001      	movs	r0, #1
1a001a06:	b004      	add	sp, #16
1a001a08:	bd10      	pop	{r4, pc}
1a001a0a:	2000      	movs	r0, #0
1a001a0c:	4770      	bx	lr
1a001a0e:	2000      	movs	r0, #0
1a001a10:	4770      	bx	lr

1a001a12 <gpioRead>:
1a001a12:	f110 0f02 	cmn.w	r0, #2
1a001a16:	d02c      	beq.n	1a001a72 <gpioRead+0x60>
1a001a18:	f1b0 3fff 	cmp.w	r0, #4294967295
1a001a1c:	d02b      	beq.n	1a001a76 <gpioRead+0x64>
1a001a1e:	b500      	push	{lr}
1a001a20:	b085      	sub	sp, #20
1a001a22:	2300      	movs	r3, #0
1a001a24:	f88d 300f 	strb.w	r3, [sp, #15]
1a001a28:	f88d 300e 	strb.w	r3, [sp, #14]
1a001a2c:	f88d 300d 	strb.w	r3, [sp, #13]
1a001a30:	f88d 300c 	strb.w	r3, [sp, #12]
1a001a34:	f88d 300b 	strb.w	r3, [sp, #11]
1a001a38:	f10d 030b 	add.w	r3, sp, #11
1a001a3c:	9301      	str	r3, [sp, #4]
1a001a3e:	ab03      	add	r3, sp, #12
1a001a40:	9300      	str	r3, [sp, #0]
1a001a42:	f10d 030d 	add.w	r3, sp, #13
1a001a46:	f10d 020e 	add.w	r2, sp, #14
1a001a4a:	f10d 010f 	add.w	r1, sp, #15
1a001a4e:	f7ff febb 	bl	1a0017c8 <gpioObtainPinInit>
1a001a52:	f99d 300c 	ldrsb.w	r3, [sp, #12]
1a001a56:	f89d 200b 	ldrb.w	r2, [sp, #11]
1a001a5a:	015b      	lsls	r3, r3, #5
1a001a5c:	f103 2340 	add.w	r3, r3, #1073758208	; 0x40004000
1a001a60:	f503 2370 	add.w	r3, r3, #983040	; 0xf0000
1a001a64:	5c98      	ldrb	r0, [r3, r2]
1a001a66:	3000      	adds	r0, #0
1a001a68:	bf18      	it	ne
1a001a6a:	2001      	movne	r0, #1
1a001a6c:	b005      	add	sp, #20
1a001a6e:	f85d fb04 	ldr.w	pc, [sp], #4
1a001a72:	2001      	movs	r0, #1
1a001a74:	4770      	bx	lr
1a001a76:	2000      	movs	r0, #0
1a001a78:	4770      	bx	lr
1a001a7a:	Address 0x1a001a7a is out of bounds.


1a001a7c <adcInit>:
1a001a7c:	b530      	push	{r4, r5, lr}
1a001a7e:	b083      	sub	sp, #12
1a001a80:	b118      	cbz	r0, 1a001a8a <adcInit+0xe>
1a001a82:	2801      	cmp	r0, #1
1a001a84:	d04a      	beq.n	1a001b1c <adcInit+0xa0>
1a001a86:	b003      	add	sp, #12
1a001a88:	bd30      	pop	{r4, r5, pc}
1a001a8a:	4b26      	ldr	r3, [pc, #152]	; (1a001b24 <adcInit+0xa8>)
1a001a8c:	466d      	mov	r5, sp
1a001a8e:	e893 0003 	ldmia.w	r3, {r0, r1}
1a001a92:	e885 0003 	stmia.w	r5, {r0, r1}
1a001a96:	4c24      	ldr	r4, [pc, #144]	; (1a001b28 <adcInit+0xac>)
1a001a98:	4629      	mov	r1, r5
1a001a9a:	4620      	mov	r0, r4
1a001a9c:	f7ff f8ce 	bl	1a000c3c <Chip_ADC_Init>
1a001aa0:	2100      	movs	r1, #0
1a001aa2:	4620      	mov	r0, r4
1a001aa4:	f7ff f969 	bl	1a000d7a <Chip_ADC_SetBurstCmd>
1a001aa8:	4a20      	ldr	r2, [pc, #128]	; (1a001b2c <adcInit+0xb0>)
1a001aaa:	4629      	mov	r1, r5
1a001aac:	4620      	mov	r0, r4
1a001aae:	f7ff f930 	bl	1a000d12 <Chip_ADC_SetSampleRate>
1a001ab2:	2200      	movs	r2, #0
1a001ab4:	2101      	movs	r1, #1
1a001ab6:	4620      	mov	r0, r4
1a001ab8:	f7ff f94a 	bl	1a000d50 <Chip_ADC_EnableChannel>
1a001abc:	2200      	movs	r2, #0
1a001abe:	2101      	movs	r1, #1
1a001ac0:	4620      	mov	r0, r4
1a001ac2:	f7ff f905 	bl	1a000cd0 <Chip_ADC_Int_SetChannelCmd>
1a001ac6:	2200      	movs	r2, #0
1a001ac8:	2102      	movs	r1, #2
1a001aca:	4620      	mov	r0, r4
1a001acc:	f7ff f940 	bl	1a000d50 <Chip_ADC_EnableChannel>
1a001ad0:	2200      	movs	r2, #0
1a001ad2:	2102      	movs	r1, #2
1a001ad4:	4620      	mov	r0, r4
1a001ad6:	f7ff f8fb 	bl	1a000cd0 <Chip_ADC_Int_SetChannelCmd>
1a001ada:	2200      	movs	r2, #0
1a001adc:	2103      	movs	r1, #3
1a001ade:	4620      	mov	r0, r4
1a001ae0:	f7ff f936 	bl	1a000d50 <Chip_ADC_EnableChannel>
1a001ae4:	2200      	movs	r2, #0
1a001ae6:	2103      	movs	r1, #3
1a001ae8:	4620      	mov	r0, r4
1a001aea:	f7ff f8f1 	bl	1a000cd0 <Chip_ADC_Int_SetChannelCmd>
1a001aee:	2200      	movs	r2, #0
1a001af0:	2104      	movs	r1, #4
1a001af2:	4620      	mov	r0, r4
1a001af4:	f7ff f92c 	bl	1a000d50 <Chip_ADC_EnableChannel>
1a001af8:	2200      	movs	r2, #0
1a001afa:	2104      	movs	r1, #4
1a001afc:	4620      	mov	r0, r4
1a001afe:	f7ff f8e7 	bl	1a000cd0 <Chip_ADC_Int_SetChannelCmd>
1a001b02:	4a0b      	ldr	r2, [pc, #44]	; (1a001b30 <adcInit+0xb4>)
1a001b04:	f8d2 3c88 	ldr.w	r3, [r2, #3208]	; 0xc88
1a001b08:	f043 0310 	orr.w	r3, r3, #16
1a001b0c:	f8c2 3c88 	str.w	r3, [r2, #3208]	; 0xc88
1a001b10:	2200      	movs	r2, #0
1a001b12:	2105      	movs	r1, #5
1a001b14:	4620      	mov	r0, r4
1a001b16:	f7ff f8db 	bl	1a000cd0 <Chip_ADC_Int_SetChannelCmd>
1a001b1a:	e7b4      	b.n	1a001a86 <adcInit+0xa>
1a001b1c:	4802      	ldr	r0, [pc, #8]	; (1a001b28 <adcInit+0xac>)
1a001b1e:	f7ff f8ad 	bl	1a000c7c <Chip_ADC_DeInit>
1a001b22:	e7b0      	b.n	1a001a86 <adcInit+0xa>
1a001b24:	1a00334c 	.word	0x1a00334c
1a001b28:	400e3000 	.word	0x400e3000
1a001b2c:	00030d40 	.word	0x00030d40
1a001b30:	40086000 	.word	0x40086000

1a001b34 <adcRead>:
1a001b34:	b570      	push	{r4, r5, r6, lr}
1a001b36:	b082      	sub	sp, #8
1a001b38:	3001      	adds	r0, #1
1a001b3a:	b2c4      	uxtb	r4, r0
1a001b3c:	2600      	movs	r6, #0
1a001b3e:	f8ad 6006 	strh.w	r6, [sp, #6]
1a001b42:	4d11      	ldr	r5, [pc, #68]	; (1a001b88 <adcRead+0x54>)
1a001b44:	2201      	movs	r2, #1
1a001b46:	4621      	mov	r1, r4
1a001b48:	4628      	mov	r0, r5
1a001b4a:	f7ff f901 	bl	1a000d50 <Chip_ADC_EnableChannel>
1a001b4e:	4632      	mov	r2, r6
1a001b50:	2101      	movs	r1, #1
1a001b52:	4628      	mov	r0, r5
1a001b54:	f7ff f8cd 	bl	1a000cf2 <Chip_ADC_SetStartMode>
1a001b58:	2200      	movs	r2, #0
1a001b5a:	4621      	mov	r1, r4
1a001b5c:	480a      	ldr	r0, [pc, #40]	; (1a001b88 <adcRead+0x54>)
1a001b5e:	f7ff f89c 	bl	1a000c9a <Chip_ADC_ReadStatus>
1a001b62:	2801      	cmp	r0, #1
1a001b64:	d1f8      	bne.n	1a001b58 <adcRead+0x24>
1a001b66:	4d08      	ldr	r5, [pc, #32]	; (1a001b88 <adcRead+0x54>)
1a001b68:	f10d 0206 	add.w	r2, sp, #6
1a001b6c:	4621      	mov	r1, r4
1a001b6e:	4628      	mov	r0, r5
1a001b70:	f7ff f88f 	bl	1a000c92 <Chip_ADC_ReadValue>
1a001b74:	2200      	movs	r2, #0
1a001b76:	4621      	mov	r1, r4
1a001b78:	4628      	mov	r0, r5
1a001b7a:	f7ff f8e9 	bl	1a000d50 <Chip_ADC_EnableChannel>
1a001b7e:	f8bd 0006 	ldrh.w	r0, [sp, #6]
1a001b82:	b002      	add	sp, #8
1a001b84:	bd70      	pop	{r4, r5, r6, pc}
1a001b86:	bf00      	nop
1a001b88:	400e3000 	.word	0x400e3000

1a001b8c <tickRead>:
1a001b8c:	4b01      	ldr	r3, [pc, #4]	; (1a001b94 <tickRead+0x8>)
1a001b8e:	e9d3 0100 	ldrd	r0, r1, [r3]
1a001b92:	4770      	bx	lr
1a001b94:	10000128 	.word	0x10000128

1a001b98 <tickPowerSet>:
1a001b98:	b118      	cbz	r0, 1a001ba2 <tickPowerSet+0xa>
1a001b9a:	4b04      	ldr	r3, [pc, #16]	; (1a001bac <tickPowerSet+0x14>)
1a001b9c:	2207      	movs	r2, #7
1a001b9e:	601a      	str	r2, [r3, #0]
1a001ba0:	4770      	bx	lr
1a001ba2:	4b02      	ldr	r3, [pc, #8]	; (1a001bac <tickPowerSet+0x14>)
1a001ba4:	2200      	movs	r2, #0
1a001ba6:	601a      	str	r2, [r3, #0]
1a001ba8:	4770      	bx	lr
1a001baa:	bf00      	nop
1a001bac:	e000e010 	.word	0xe000e010

1a001bb0 <tickInit>:
1a001bb0:	b538      	push	{r3, r4, r5, lr}
1a001bb2:	ea50 0401 	orrs.w	r4, r0, r1
1a001bb6:	d02a      	beq.n	1a001c0e <tickInit+0x5e>
1a001bb8:	f110 32ff 	adds.w	r2, r0, #4294967295
1a001bbc:	f141 33ff 	adc.w	r3, r1, #4294967295
1a001bc0:	2b00      	cmp	r3, #0
1a001bc2:	bf08      	it	eq
1a001bc4:	2a32      	cmpeq	r2, #50	; 0x32
1a001bc6:	d227      	bcs.n	1a001c18 <tickInit+0x68>
1a001bc8:	4b14      	ldr	r3, [pc, #80]	; (1a001c1c <tickInit+0x6c>)
1a001bca:	e9c3 0100 	strd	r0, r1, [r3]
1a001bce:	4b14      	ldr	r3, [pc, #80]	; (1a001c20 <tickInit+0x70>)
1a001bd0:	681b      	ldr	r3, [r3, #0]
1a001bd2:	fba3 4500 	umull	r4, r5, r3, r0
1a001bd6:	fb03 5501 	mla	r5, r3, r1, r5
1a001bda:	f44f 727a 	mov.w	r2, #1000	; 0x3e8
1a001bde:	2300      	movs	r3, #0
1a001be0:	4620      	mov	r0, r4
1a001be2:	4629      	mov	r1, r5
1a001be4:	f000 fbe6 	bl	1a0023b4 <__aeabi_uldivmod>
1a001be8:	3801      	subs	r0, #1
1a001bea:	f1b0 7f80 	cmp.w	r0, #16777216	; 0x1000000
1a001bee:	d209      	bcs.n	1a001c04 <tickInit+0x54>
1a001bf0:	4b0c      	ldr	r3, [pc, #48]	; (1a001c24 <tickInit+0x74>)
1a001bf2:	6058      	str	r0, [r3, #4]
1a001bf4:	4a0c      	ldr	r2, [pc, #48]	; (1a001c28 <tickInit+0x78>)
1a001bf6:	21e0      	movs	r1, #224	; 0xe0
1a001bf8:	f882 1023 	strb.w	r1, [r2, #35]	; 0x23
1a001bfc:	2200      	movs	r2, #0
1a001bfe:	609a      	str	r2, [r3, #8]
1a001c00:	2207      	movs	r2, #7
1a001c02:	601a      	str	r2, [r3, #0]
1a001c04:	2001      	movs	r0, #1
1a001c06:	f7ff ffc7 	bl	1a001b98 <tickPowerSet>
1a001c0a:	2001      	movs	r0, #1
1a001c0c:	bd38      	pop	{r3, r4, r5, pc}
1a001c0e:	2000      	movs	r0, #0
1a001c10:	f7ff ffc2 	bl	1a001b98 <tickPowerSet>
1a001c14:	2000      	movs	r0, #0
1a001c16:	e7f9      	b.n	1a001c0c <tickInit+0x5c>
1a001c18:	2000      	movs	r0, #0
1a001c1a:	e7f7      	b.n	1a001c0c <tickInit+0x5c>
1a001c1c:	10000088 	.word	0x10000088
1a001c20:	10000178 	.word	0x10000178
1a001c24:	e000e010 	.word	0xe000e010
1a001c28:	e000ed00 	.word	0xe000ed00

1a001c2c <SysTick_Handler>:
1a001c2c:	b508      	push	{r3, lr}
1a001c2e:	4a07      	ldr	r2, [pc, #28]	; (1a001c4c <SysTick_Handler+0x20>)
1a001c30:	6813      	ldr	r3, [r2, #0]
1a001c32:	6851      	ldr	r1, [r2, #4]
1a001c34:	3301      	adds	r3, #1
1a001c36:	f141 0100 	adc.w	r1, r1, #0
1a001c3a:	6013      	str	r3, [r2, #0]
1a001c3c:	6051      	str	r1, [r2, #4]
1a001c3e:	4b04      	ldr	r3, [pc, #16]	; (1a001c50 <SysTick_Handler+0x24>)
1a001c40:	681b      	ldr	r3, [r3, #0]
1a001c42:	b113      	cbz	r3, 1a001c4a <SysTick_Handler+0x1e>
1a001c44:	4a03      	ldr	r2, [pc, #12]	; (1a001c54 <SysTick_Handler+0x28>)
1a001c46:	6810      	ldr	r0, [r2, #0]
1a001c48:	4798      	blx	r3
1a001c4a:	bd08      	pop	{r3, pc}
1a001c4c:	10000128 	.word	0x10000128
1a001c50:	10000130 	.word	0x10000130
1a001c54:	10000120 	.word	0x10000120

1a001c58 <uartInit>:
1a001c58:	e92d 43f8 	stmdb	sp!, {r3, r4, r5, r6, r7, r8, r9, lr}
1a001c5c:	4680      	mov	r8, r0
1a001c5e:	4689      	mov	r9, r1
1a001c60:	4c19      	ldr	r4, [pc, #100]	; (1a001cc8 <uartInit+0x70>)
1a001c62:	0045      	lsls	r5, r0, #1
1a001c64:	182a      	adds	r2, r5, r0
1a001c66:	0093      	lsls	r3, r2, #2
1a001c68:	18e6      	adds	r6, r4, r3
1a001c6a:	58e7      	ldr	r7, [r4, r3]
1a001c6c:	4638      	mov	r0, r7
1a001c6e:	f7ff fcb3 	bl	1a0015d8 <Chip_UART_Init>
1a001c72:	4649      	mov	r1, r9
1a001c74:	4638      	mov	r0, r7
1a001c76:	f7ff fced 	bl	1a001654 <Chip_UART_SetBaud>
1a001c7a:	2307      	movs	r3, #7
1a001c7c:	60bb      	str	r3, [r7, #8]
1a001c7e:	683b      	ldr	r3, [r7, #0]
1a001c80:	2301      	movs	r3, #1
1a001c82:	65fb      	str	r3, [r7, #92]	; 0x5c
1a001c84:	7930      	ldrb	r0, [r6, #4]
1a001c86:	7973      	ldrb	r3, [r6, #5]
1a001c88:	79b2      	ldrb	r2, [r6, #6]
1a001c8a:	f042 0218 	orr.w	r2, r2, #24
1a001c8e:	490f      	ldr	r1, [pc, #60]	; (1a001ccc <uartInit+0x74>)
1a001c90:	eb03 1340 	add.w	r3, r3, r0, lsl #5
1a001c94:	f841 2023 	str.w	r2, [r1, r3, lsl #2]
1a001c98:	79f0      	ldrb	r0, [r6, #7]
1a001c9a:	7a33      	ldrb	r3, [r6, #8]
1a001c9c:	7a72      	ldrb	r2, [r6, #9]
1a001c9e:	f042 02d0 	orr.w	r2, r2, #208	; 0xd0
1a001ca2:	eb03 1340 	add.w	r3, r3, r0, lsl #5
1a001ca6:	f841 2023 	str.w	r2, [r1, r3, lsl #2]
1a001caa:	f1b8 0f01 	cmp.w	r8, #1
1a001cae:	d001      	beq.n	1a001cb4 <uartInit+0x5c>
1a001cb0:	e8bd 83f8 	ldmia.w	sp!, {r3, r4, r5, r6, r7, r8, r9, pc}
1a001cb4:	4a06      	ldr	r2, [pc, #24]	; (1a001cd0 <uartInit+0x78>)
1a001cb6:	6cd3      	ldr	r3, [r2, #76]	; 0x4c
1a001cb8:	f043 0330 	orr.w	r3, r3, #48	; 0x30
1a001cbc:	64d3      	str	r3, [r2, #76]	; 0x4c
1a001cbe:	221a      	movs	r2, #26
1a001cc0:	f8c1 2308 	str.w	r2, [r1, #776]	; 0x308
1a001cc4:	e7f4      	b.n	1a001cb0 <uartInit+0x58>
1a001cc6:	bf00      	nop
1a001cc8:	1a003354 	.word	0x1a003354
1a001ccc:	40086000 	.word	0x40086000
1a001cd0:	40081000 	.word	0x40081000

1a001cd4 <CDC_ep0_override_hdlr>:
1a001cd4:	b538      	push	{r3, r4, r5, lr}
1a001cd6:	4604      	mov	r4, r0
1a001cd8:	4608      	mov	r0, r1
1a001cda:	2a02      	cmp	r2, #2
1a001cdc:	d007      	beq.n	1a001cee <CDC_ep0_override_hdlr+0x1a>
1a001cde:	4b1b      	ldr	r3, [pc, #108]	; (1a001d4c <CDC_ep0_override_hdlr+0x78>)
1a001ce0:	681b      	ldr	r3, [r3, #0]
1a001ce2:	4601      	mov	r1, r0
1a001ce4:	4620      	mov	r0, r4
1a001ce6:	4798      	blx	r3
1a001ce8:	4605      	mov	r5, r0
1a001cea:	4628      	mov	r0, r5
1a001cec:	bd38      	pop	{r3, r4, r5, pc}
1a001cee:	f894 3174 	ldrb.w	r3, [r4, #372]	; 0x174
1a001cf2:	f003 037f 	and.w	r3, r3, #127	; 0x7f
1a001cf6:	2b21      	cmp	r3, #33	; 0x21
1a001cf8:	d1f1      	bne.n	1a001cde <CDC_ep0_override_hdlr+0xa>
1a001cfa:	f991 301a 	ldrsb.w	r3, [r1, #26]
1a001cfe:	2b00      	cmp	r3, #0
1a001d00:	db0a      	blt.n	1a001d18 <CDC_ep0_override_hdlr+0x44>
1a001d02:	7dca      	ldrb	r2, [r1, #23]
1a001d04:	7e09      	ldrb	r1, [r1, #24]
1a001d06:	6c05      	ldr	r5, [r0, #64]	; 0x40
1a001d08:	f894 3178 	ldrb.w	r3, [r4, #376]	; 0x178
1a001d0c:	4293      	cmp	r3, r2
1a001d0e:	d007      	beq.n	1a001d20 <CDC_ep0_override_hdlr+0x4c>
1a001d10:	428b      	cmp	r3, r1
1a001d12:	d005      	beq.n	1a001d20 <CDC_ep0_override_hdlr+0x4c>
1a001d14:	4d0e      	ldr	r5, [pc, #56]	; (1a001d50 <CDC_ep0_override_hdlr+0x7c>)
1a001d16:	e7e8      	b.n	1a001cea <CDC_ep0_override_hdlr+0x16>
1a001d18:	7e0a      	ldrb	r2, [r1, #24]
1a001d1a:	7e49      	ldrb	r1, [r1, #25]
1a001d1c:	6c45      	ldr	r5, [r0, #68]	; 0x44
1a001d1e:	e7f3      	b.n	1a001d08 <CDC_ep0_override_hdlr+0x34>
1a001d20:	f8b4 317a 	ldrh.w	r3, [r4, #378]	; 0x17a
1a001d24:	f8d4 212c 	ldr.w	r2, [r4, #300]	; 0x12c
1a001d28:	1ad2      	subs	r2, r2, r3
1a001d2a:	f8c4 212c 	str.w	r2, [r4, #300]	; 0x12c
1a001d2e:	f504 7296 	add.w	r2, r4, #300	; 0x12c
1a001d32:	f504 71ba 	add.w	r1, r4, #372	; 0x174
1a001d36:	47a8      	blx	r5
1a001d38:	4605      	mov	r5, r0
1a001d3a:	2800      	cmp	r0, #0
1a001d3c:	d1d5      	bne.n	1a001cea <CDC_ep0_override_hdlr+0x16>
1a001d3e:	4b05      	ldr	r3, [pc, #20]	; (1a001d54 <CDC_ep0_override_hdlr+0x80>)
1a001d40:	681b      	ldr	r3, [r3, #0]
1a001d42:	685b      	ldr	r3, [r3, #4]
1a001d44:	695b      	ldr	r3, [r3, #20]
1a001d46:	4620      	mov	r0, r4
1a001d48:	4798      	blx	r3
1a001d4a:	e7ce      	b.n	1a001cea <CDC_ep0_override_hdlr+0x16>
1a001d4c:	10000134 	.word	0x10000134
1a001d50:	00040002 	.word	0x00040002
1a001d54:	1000017c 	.word	0x1000017c

1a001d58 <UCOM_bulk_hdlr>:
1a001d58:	b570      	push	{r4, r5, r6, lr}
1a001d5a:	460c      	mov	r4, r1
1a001d5c:	2a03      	cmp	r2, #3
1a001d5e:	d005      	beq.n	1a001d6c <UCOM_bulk_hdlr+0x14>
1a001d60:	2a04      	cmp	r2, #4
1a001d62:	d022      	beq.n	1a001daa <UCOM_bulk_hdlr+0x52>
1a001d64:	2a02      	cmp	r2, #2
1a001d66:	d02f      	beq.n	1a001dc8 <UCOM_bulk_hdlr+0x70>
1a001d68:	2000      	movs	r0, #0
1a001d6a:	bd70      	pop	{r4, r5, r6, pc}
1a001d6c:	7d0a      	ldrb	r2, [r1, #20]
1a001d6e:	7d4b      	ldrb	r3, [r1, #21]
1a001d70:	429a      	cmp	r2, r3
1a001d72:	d215      	bcs.n	1a001da0 <UCOM_bulk_hdlr+0x48>
1a001d74:	f1c3 0340 	rsb	r3, r3, #64	; 0x40
1a001d78:	b1a3      	cbz	r3, 1a001da4 <UCOM_bulk_hdlr+0x4c>
1a001d7a:	2201      	movs	r2, #1
1a001d7c:	75a2      	strb	r2, [r4, #22]
1a001d7e:	4a23      	ldr	r2, [pc, #140]	; (1a001e0c <UCOM_bulk_hdlr+0xb4>)
1a001d80:	6812      	ldr	r2, [r2, #0]
1a001d82:	6812      	ldr	r2, [r2, #0]
1a001d84:	6d16      	ldr	r6, [r2, #80]	; 0x50
1a001d86:	68a1      	ldr	r1, [r4, #8]
1a001d88:	4d21      	ldr	r5, [pc, #132]	; (1a001e10 <UCOM_bulk_hdlr+0xb8>)
1a001d8a:	7d6a      	ldrb	r2, [r5, #21]
1a001d8c:	440a      	add	r2, r1
1a001d8e:	2181      	movs	r1, #129	; 0x81
1a001d90:	6820      	ldr	r0, [r4, #0]
1a001d92:	47b0      	blx	r6
1a001d94:	7d6b      	ldrb	r3, [r5, #21]
1a001d96:	4418      	add	r0, r3
1a001d98:	f000 003f 	and.w	r0, r0, #63	; 0x3f
1a001d9c:	7568      	strb	r0, [r5, #21]
1a001d9e:	e7e3      	b.n	1a001d68 <UCOM_bulk_hdlr+0x10>
1a001da0:	1ad3      	subs	r3, r2, r3
1a001da2:	e7e9      	b.n	1a001d78 <UCOM_bulk_hdlr+0x20>
1a001da4:	2300      	movs	r3, #0
1a001da6:	75a3      	strb	r3, [r4, #22]
1a001da8:	e7de      	b.n	1a001d68 <UCOM_bulk_hdlr+0x10>
1a001daa:	7dcb      	ldrb	r3, [r1, #23]
1a001dac:	2b00      	cmp	r3, #0
1a001dae:	d1db      	bne.n	1a001d68 <UCOM_bulk_hdlr+0x10>
1a001db0:	4b16      	ldr	r3, [pc, #88]	; (1a001e0c <UCOM_bulk_hdlr+0xb4>)
1a001db2:	681b      	ldr	r3, [r3, #0]
1a001db4:	681b      	ldr	r3, [r3, #0]
1a001db6:	6c9d      	ldr	r5, [r3, #72]	; 0x48
1a001db8:	f44f 7300 	mov.w	r3, #512	; 0x200
1a001dbc:	68ca      	ldr	r2, [r1, #12]
1a001dbe:	2101      	movs	r1, #1
1a001dc0:	47a8      	blx	r5
1a001dc2:	2301      	movs	r3, #1
1a001dc4:	75e3      	strb	r3, [r4, #23]
1a001dc6:	e7cf      	b.n	1a001d68 <UCOM_bulk_hdlr+0x10>
1a001dc8:	4b12      	ldr	r3, [pc, #72]	; (1a001e14 <UCOM_bulk_hdlr+0xbc>)
1a001dca:	685b      	ldr	r3, [r3, #4]
1a001dcc:	f013 0f02 	tst.w	r3, #2
1a001dd0:	d1ca      	bne.n	1a001d68 <UCOM_bulk_hdlr+0x10>
1a001dd2:	4b0e      	ldr	r3, [pc, #56]	; (1a001e0c <UCOM_bulk_hdlr+0xb4>)
1a001dd4:	681b      	ldr	r3, [r3, #0]
1a001dd6:	681b      	ldr	r3, [r3, #0]
1a001dd8:	6c5b      	ldr	r3, [r3, #68]	; 0x44
1a001dda:	68ca      	ldr	r2, [r1, #12]
1a001ddc:	2101      	movs	r1, #1
1a001dde:	4798      	blx	r3
1a001de0:	b202      	sxth	r2, r0
1a001de2:	8262      	strh	r2, [r4, #18]
1a001de4:	2300      	movs	r3, #0
1a001de6:	8223      	strh	r3, [r4, #16]
1a001de8:	68e1      	ldr	r1, [r4, #12]
1a001dea:	4b09      	ldr	r3, [pc, #36]	; (1a001e10 <UCOM_bulk_hdlr+0xb8>)
1a001dec:	8a1b      	ldrh	r3, [r3, #16]
1a001dee:	4d09      	ldr	r5, [pc, #36]	; (1a001e14 <UCOM_bulk_hdlr+0xbc>)
1a001df0:	4419      	add	r1, r3
1a001df2:	4628      	mov	r0, r5
1a001df4:	f7ff fc1a 	bl	1a00162c <Chip_UART_Send>
1a001df8:	b280      	uxth	r0, r0
1a001dfa:	8220      	strh	r0, [r4, #16]
1a001dfc:	8a63      	ldrh	r3, [r4, #18]
1a001dfe:	1a1b      	subs	r3, r3, r0
1a001e00:	8263      	strh	r3, [r4, #18]
1a001e02:	686b      	ldr	r3, [r5, #4]
1a001e04:	f043 0302 	orr.w	r3, r3, #2
1a001e08:	606b      	str	r3, [r5, #4]
1a001e0a:	e7ad      	b.n	1a001d68 <UCOM_bulk_hdlr+0x10>
1a001e0c:	1000017c 	.word	0x1000017c
1a001e10:	10000138 	.word	0x10000138
1a001e14:	400c1000 	.word	0x400c1000

1a001e18 <UCOM_SetLineCode>:
1a001e18:	b510      	push	{r4, lr}
1a001e1a:	798b      	ldrb	r3, [r1, #6]
1a001e1c:	2b06      	cmp	r3, #6
1a001e1e:	d011      	beq.n	1a001e44 <UCOM_SetLineCode+0x2c>
1a001e20:	2b07      	cmp	r3, #7
1a001e22:	d011      	beq.n	1a001e48 <UCOM_SetLineCode+0x30>
1a001e24:	2b05      	cmp	r3, #5
1a001e26:	d011      	beq.n	1a001e4c <UCOM_SetLineCode+0x34>
1a001e28:	2403      	movs	r4, #3
1a001e2a:	790a      	ldrb	r2, [r1, #4]
1a001e2c:	2a01      	cmp	r2, #1
1a001e2e:	d00f      	beq.n	1a001e50 <UCOM_SetLineCode+0x38>
1a001e30:	2a02      	cmp	r2, #2
1a001e32:	d012      	beq.n	1a001e5a <UCOM_SetLineCode+0x42>
1a001e34:	794b      	ldrb	r3, [r1, #5]
1a001e36:	3b01      	subs	r3, #1
1a001e38:	2b03      	cmp	r3, #3
1a001e3a:	d815      	bhi.n	1a001e68 <UCOM_SetLineCode+0x50>
1a001e3c:	e8df f003 	tbb	[pc, r3]
1a001e40:	221f1c12 	.word	0x221f1c12
1a001e44:	2401      	movs	r4, #1
1a001e46:	e7f0      	b.n	1a001e2a <UCOM_SetLineCode+0x12>
1a001e48:	2402      	movs	r4, #2
1a001e4a:	e7ee      	b.n	1a001e2a <UCOM_SetLineCode+0x12>
1a001e4c:	2400      	movs	r4, #0
1a001e4e:	e7ec      	b.n	1a001e2a <UCOM_SetLineCode+0x12>
1a001e50:	2b05      	cmp	r3, #5
1a001e52:	d11e      	bne.n	1a001e92 <UCOM_SetLineCode+0x7a>
1a001e54:	f044 0404 	orr.w	r4, r4, #4
1a001e58:	e7ec      	b.n	1a001e34 <UCOM_SetLineCode+0x1c>
1a001e5a:	2b05      	cmp	r3, #5
1a001e5c:	d01b      	beq.n	1a001e96 <UCOM_SetLineCode+0x7e>
1a001e5e:	f044 0404 	orr.w	r4, r4, #4
1a001e62:	e7e7      	b.n	1a001e34 <UCOM_SetLineCode+0x1c>
1a001e64:	f044 0408 	orr.w	r4, r4, #8
1a001e68:	6809      	ldr	r1, [r1, #0]
1a001e6a:	4b0c      	ldr	r3, [pc, #48]	; (1a001e9c <UCOM_SetLineCode+0x84>)
1a001e6c:	4299      	cmp	r1, r3
1a001e6e:	d90c      	bls.n	1a001e8a <UCOM_SetLineCode+0x72>
1a001e70:	4b0b      	ldr	r3, [pc, #44]	; (1a001ea0 <UCOM_SetLineCode+0x88>)
1a001e72:	60dc      	str	r4, [r3, #12]
1a001e74:	2000      	movs	r0, #0
1a001e76:	bd10      	pop	{r4, pc}
1a001e78:	f044 0418 	orr.w	r4, r4, #24
1a001e7c:	e7f4      	b.n	1a001e68 <UCOM_SetLineCode+0x50>
1a001e7e:	f044 0428 	orr.w	r4, r4, #40	; 0x28
1a001e82:	e7f1      	b.n	1a001e68 <UCOM_SetLineCode+0x50>
1a001e84:	f044 0438 	orr.w	r4, r4, #56	; 0x38
1a001e88:	e7ee      	b.n	1a001e68 <UCOM_SetLineCode+0x50>
1a001e8a:	4805      	ldr	r0, [pc, #20]	; (1a001ea0 <UCOM_SetLineCode+0x88>)
1a001e8c:	f7ff fbe2 	bl	1a001654 <Chip_UART_SetBaud>
1a001e90:	e7ee      	b.n	1a001e70 <UCOM_SetLineCode+0x58>
1a001e92:	4804      	ldr	r0, [pc, #16]	; (1a001ea4 <UCOM_SetLineCode+0x8c>)
1a001e94:	e7ef      	b.n	1a001e76 <UCOM_SetLineCode+0x5e>
1a001e96:	4803      	ldr	r0, [pc, #12]	; (1a001ea4 <UCOM_SetLineCode+0x8c>)
1a001e98:	e7ed      	b.n	1a001e76 <UCOM_SetLineCode+0x5e>
1a001e9a:	bf00      	nop
1a001e9c:	002faf07 	.word	0x002faf07
1a001ea0:	400c1000 	.word	0x400c1000
1a001ea4:	00040002 	.word	0x00040002

1a001ea8 <cdcUartLpcInit>:
1a001ea8:	b5f0      	push	{r4, r5, r6, r7, lr}
1a001eaa:	b093      	sub	sp, #76	; 0x4c
1a001eac:	4604      	mov	r4, r0
1a001eae:	460f      	mov	r7, r1
1a001eb0:	4615      	mov	r5, r2
1a001eb2:	4e2e      	ldr	r6, [pc, #184]	; (1a001f6c <cdcUartLpcInit+0xc4>)
1a001eb4:	f846 0b04 	str.w	r0, [r6], #4
1a001eb8:	2248      	movs	r2, #72	; 0x48
1a001eba:	2100      	movs	r1, #0
1a001ebc:	4668      	mov	r0, sp
1a001ebe:	f000 fdd8 	bl	1a002a72 <memset>
1a001ec2:	686b      	ldr	r3, [r5, #4]
1a001ec4:	9300      	str	r3, [sp, #0]
1a001ec6:	68ab      	ldr	r3, [r5, #8]
1a001ec8:	9301      	str	r3, [sp, #4]
1a001eca:	2102      	movs	r1, #2
1a001ecc:	68f8      	ldr	r0, [r7, #12]
1a001ece:	f000 f997 	bl	1a002200 <find_IntfDesc>
1a001ed2:	9002      	str	r0, [sp, #8]
1a001ed4:	210a      	movs	r1, #10
1a001ed6:	68f8      	ldr	r0, [r7, #12]
1a001ed8:	f000 f992 	bl	1a002200 <find_IntfDesc>
1a001edc:	9003      	str	r0, [sp, #12]
1a001ede:	4b24      	ldr	r3, [pc, #144]	; (1a001f70 <cdcUartLpcInit+0xc8>)
1a001ee0:	930f      	str	r3, [sp, #60]	; 0x3c
1a001ee2:	4b24      	ldr	r3, [pc, #144]	; (1a001f74 <cdcUartLpcInit+0xcc>)
1a001ee4:	681b      	ldr	r3, [r3, #0]
1a001ee6:	695b      	ldr	r3, [r3, #20]
1a001ee8:	685b      	ldr	r3, [r3, #4]
1a001eea:	4632      	mov	r2, r6
1a001eec:	4669      	mov	r1, sp
1a001eee:	4620      	mov	r0, r4
1a001ef0:	4798      	blx	r3
1a001ef2:	4603      	mov	r3, r0
1a001ef4:	2800      	cmp	r0, #0
1a001ef6:	d135      	bne.n	1a001f64 <cdcUartLpcInit+0xbc>
1a001ef8:	9a00      	ldr	r2, [sp, #0]
1a001efa:	4b1c      	ldr	r3, [pc, #112]	; (1a001f6c <cdcUartLpcInit+0xc4>)
1a001efc:	60da      	str	r2, [r3, #12]
1a001efe:	f502 7100 	add.w	r1, r2, #512	; 0x200
1a001f02:	6099      	str	r1, [r3, #8]
1a001f04:	f502 7210 	add.w	r2, r2, #576	; 0x240
1a001f08:	9200      	str	r2, [sp, #0]
1a001f0a:	9a01      	ldr	r2, [sp, #4]
1a001f0c:	f5a2 7210 	sub.w	r2, r2, #576	; 0x240
1a001f10:	9201      	str	r2, [sp, #4]
1a001f12:	4a18      	ldr	r2, [pc, #96]	; (1a001f74 <cdcUartLpcInit+0xcc>)
1a001f14:	6812      	ldr	r2, [r2, #0]
1a001f16:	6852      	ldr	r2, [r2, #4]
1a001f18:	6856      	ldr	r6, [r2, #4]
1a001f1a:	4a17      	ldr	r2, [pc, #92]	; (1a001f78 <cdcUartLpcInit+0xd0>)
1a001f1c:	2103      	movs	r1, #3
1a001f1e:	4620      	mov	r0, r4
1a001f20:	47b0      	blx	r6
1a001f22:	4603      	mov	r3, r0
1a001f24:	b9d0      	cbnz	r0, 1a001f5c <cdcUartLpcInit+0xb4>
1a001f26:	f894 30f8 	ldrb.w	r3, [r4, #248]	; 0xf8
1a001f2a:	332d      	adds	r3, #45	; 0x2d
1a001f2c:	f854 1023 	ldr.w	r1, [r4, r3, lsl #2]
1a001f30:	4a12      	ldr	r2, [pc, #72]	; (1a001f7c <cdcUartLpcInit+0xd4>)
1a001f32:	6011      	str	r1, [r2, #0]
1a001f34:	4a12      	ldr	r2, [pc, #72]	; (1a001f80 <cdcUartLpcInit+0xd8>)
1a001f36:	f844 2023 	str.w	r2, [r4, r3, lsl #2]
1a001f3a:	4b0e      	ldr	r3, [pc, #56]	; (1a001f74 <cdcUartLpcInit+0xcc>)
1a001f3c:	681b      	ldr	r3, [r3, #0]
1a001f3e:	685b      	ldr	r3, [r3, #4]
1a001f40:	685f      	ldr	r7, [r3, #4]
1a001f42:	4e0a      	ldr	r6, [pc, #40]	; (1a001f6c <cdcUartLpcInit+0xc4>)
1a001f44:	4633      	mov	r3, r6
1a001f46:	4a0c      	ldr	r2, [pc, #48]	; (1a001f78 <cdcUartLpcInit+0xd0>)
1a001f48:	2102      	movs	r1, #2
1a001f4a:	4620      	mov	r0, r4
1a001f4c:	47b8      	blx	r7
1a001f4e:	4603      	mov	r3, r0
1a001f50:	6872      	ldr	r2, [r6, #4]
1a001f52:	f44f 31e1 	mov.w	r1, #115200	; 0x1c200
1a001f56:	6111      	str	r1, [r2, #16]
1a001f58:	2108      	movs	r1, #8
1a001f5a:	7591      	strb	r1, [r2, #22]
1a001f5c:	9a00      	ldr	r2, [sp, #0]
1a001f5e:	606a      	str	r2, [r5, #4]
1a001f60:	9a01      	ldr	r2, [sp, #4]
1a001f62:	60aa      	str	r2, [r5, #8]
1a001f64:	4618      	mov	r0, r3
1a001f66:	b013      	add	sp, #76	; 0x4c
1a001f68:	bdf0      	pop	{r4, r5, r6, r7, pc}
1a001f6a:	bf00      	nop
1a001f6c:	10000138 	.word	0x10000138
1a001f70:	1a001e19 	.word	0x1a001e19
1a001f74:	1000017c 	.word	0x1000017c
1a001f78:	1a001d59 	.word	0x1a001d59
1a001f7c:	10000134 	.word	0x10000134
1a001f80:	1a001cd5 	.word	0x1a001cd5

1a001f84 <Keyboard_EpIN_Hdlr>:
1a001f84:	2a03      	cmp	r2, #3
1a001f86:	d001      	beq.n	1a001f8c <Keyboard_EpIN_Hdlr+0x8>
1a001f88:	2000      	movs	r0, #0
1a001f8a:	4770      	bx	lr
1a001f8c:	4b01      	ldr	r3, [pc, #4]	; (1a001f94 <Keyboard_EpIN_Hdlr+0x10>)
1a001f8e:	2200      	movs	r2, #0
1a001f90:	731a      	strb	r2, [r3, #12]
1a001f92:	e7f9      	b.n	1a001f88 <Keyboard_EpIN_Hdlr+0x4>
1a001f94:	10000150 	.word	0x10000150

1a001f98 <Keyboard_UpdateReport>:
1a001f98:	b508      	push	{r3, lr}
1a001f9a:	4a05      	ldr	r2, [pc, #20]	; (1a001fb0 <Keyboard_UpdateReport+0x18>)
1a001f9c:	2300      	movs	r3, #0
1a001f9e:	6053      	str	r3, [r2, #4]
1a001fa0:	6093      	str	r3, [r2, #8]
1a001fa2:	4b04      	ldr	r3, [pc, #16]	; (1a001fb4 <Keyboard_UpdateReport+0x1c>)
1a001fa4:	681b      	ldr	r3, [r3, #0]
1a001fa6:	b10b      	cbz	r3, 1a001fac <Keyboard_UpdateReport+0x14>
1a001fa8:	2000      	movs	r0, #0
1a001faa:	4798      	blx	r3
1a001fac:	bd08      	pop	{r3, pc}
1a001fae:	bf00      	nop
1a001fb0:	10000150 	.word	0x10000150
1a001fb4:	10000160 	.word	0x10000160

1a001fb8 <Keyboard_SetReport>:
1a001fb8:	b1d3      	cbz	r3, 1a001ff0 <Keyboard_SetReport+0x38>
1a001fba:	b508      	push	{r3, lr}
1a001fbc:	78cb      	ldrb	r3, [r1, #3]
1a001fbe:	2b02      	cmp	r3, #2
1a001fc0:	d005      	beq.n	1a001fce <Keyboard_SetReport+0x16>
1a001fc2:	2b03      	cmp	r3, #3
1a001fc4:	d016      	beq.n	1a001ff4 <Keyboard_SetReport+0x3c>
1a001fc6:	2b01      	cmp	r3, #1
1a001fc8:	d016      	beq.n	1a001ff8 <Keyboard_SetReport+0x40>
1a001fca:	2000      	movs	r0, #0
1a001fcc:	bd08      	pop	{r3, pc}
1a001fce:	6813      	ldr	r3, [r2, #0]
1a001fd0:	781b      	ldrb	r3, [r3, #0]
1a001fd2:	f013 0f01 	tst.w	r3, #1
1a001fd6:	d005      	beq.n	1a001fe4 <Keyboard_SetReport+0x2c>
1a001fd8:	2101      	movs	r1, #1
1a001fda:	202a      	movs	r0, #42	; 0x2a
1a001fdc:	f7ff fce4 	bl	1a0019a8 <gpioWrite>
1a001fe0:	2000      	movs	r0, #0
1a001fe2:	e7f3      	b.n	1a001fcc <Keyboard_SetReport+0x14>
1a001fe4:	2100      	movs	r1, #0
1a001fe6:	202a      	movs	r0, #42	; 0x2a
1a001fe8:	f7ff fcde 	bl	1a0019a8 <gpioWrite>
1a001fec:	2000      	movs	r0, #0
1a001fee:	e7ed      	b.n	1a001fcc <Keyboard_SetReport+0x14>
1a001ff0:	2000      	movs	r0, #0
1a001ff2:	4770      	bx	lr
1a001ff4:	4801      	ldr	r0, [pc, #4]	; (1a001ffc <Keyboard_SetReport+0x44>)
1a001ff6:	e7e9      	b.n	1a001fcc <Keyboard_SetReport+0x14>
1a001ff8:	4800      	ldr	r0, [pc, #0]	; (1a001ffc <Keyboard_SetReport+0x44>)
1a001ffa:	e7e7      	b.n	1a001fcc <Keyboard_SetReport+0x14>
1a001ffc:	00040003 	.word	0x00040003

1a002000 <Keyboard_GetReport>:
1a002000:	b538      	push	{r3, r4, r5, lr}
1a002002:	78c9      	ldrb	r1, [r1, #3]
1a002004:	2901      	cmp	r1, #1
1a002006:	d005      	beq.n	1a002014 <Keyboard_GetReport+0x14>
1a002008:	b24b      	sxtb	r3, r1
1a00200a:	b183      	cbz	r3, 1a00202e <Keyboard_GetReport+0x2e>
1a00200c:	2903      	cmp	r1, #3
1a00200e:	d810      	bhi.n	1a002032 <Keyboard_GetReport+0x32>
1a002010:	4809      	ldr	r0, [pc, #36]	; (1a002038 <Keyboard_GetReport+0x38>)
1a002012:	bd38      	pop	{r3, r4, r5, pc}
1a002014:	461c      	mov	r4, r3
1a002016:	4615      	mov	r5, r2
1a002018:	f7ff ffbe 	bl	1a001f98 <Keyboard_UpdateReport>
1a00201c:	682a      	ldr	r2, [r5, #0]
1a00201e:	4b07      	ldr	r3, [pc, #28]	; (1a00203c <Keyboard_GetReport+0x3c>)
1a002020:	cb03      	ldmia	r3!, {r0, r1}
1a002022:	6010      	str	r0, [r2, #0]
1a002024:	6051      	str	r1, [r2, #4]
1a002026:	2308      	movs	r3, #8
1a002028:	8023      	strh	r3, [r4, #0]
1a00202a:	2000      	movs	r0, #0
1a00202c:	e7f1      	b.n	1a002012 <Keyboard_GetReport+0x12>
1a00202e:	2000      	movs	r0, #0
1a002030:	e7ef      	b.n	1a002012 <Keyboard_GetReport+0x12>
1a002032:	2000      	movs	r0, #0
1a002034:	e7ed      	b.n	1a002012 <Keyboard_GetReport+0x12>
1a002036:	bf00      	nop
1a002038:	00040003 	.word	0x00040003
1a00203c:	10000154 	.word	0x10000154

1a002040 <usbDeviceKeyboardInit>:
1a002040:	2900      	cmp	r1, #0
1a002042:	d036      	beq.n	1a0020b2 <usbDeviceKeyboardInit+0x72>
1a002044:	b5f0      	push	{r4, r5, r6, r7, lr}
1a002046:	b091      	sub	sp, #68	; 0x44
1a002048:	460c      	mov	r4, r1
1a00204a:	7949      	ldrb	r1, [r1, #5]
1a00204c:	2903      	cmp	r1, #3
1a00204e:	d133      	bne.n	1a0020b8 <usbDeviceKeyboardInit+0x78>
1a002050:	461f      	mov	r7, r3
1a002052:	4616      	mov	r6, r2
1a002054:	4605      	mov	r5, r0
1a002056:	2238      	movs	r2, #56	; 0x38
1a002058:	2100      	movs	r1, #0
1a00205a:	a802      	add	r0, sp, #8
1a00205c:	f000 fd09 	bl	1a002a72 <memset>
1a002060:	2301      	movs	r3, #1
1a002062:	f88d 3010 	strb.w	r3, [sp, #16]
1a002066:	6833      	ldr	r3, [r6, #0]
1a002068:	9302      	str	r3, [sp, #8]
1a00206a:	683b      	ldr	r3, [r7, #0]
1a00206c:	9303      	str	r3, [sp, #12]
1a00206e:	9405      	str	r4, [sp, #20]
1a002070:	4b13      	ldr	r3, [pc, #76]	; (1a0020c0 <usbDeviceKeyboardInit+0x80>)
1a002072:	9307      	str	r3, [sp, #28]
1a002074:	4b13      	ldr	r3, [pc, #76]	; (1a0020c4 <usbDeviceKeyboardInit+0x84>)
1a002076:	9308      	str	r3, [sp, #32]
1a002078:	4b13      	ldr	r3, [pc, #76]	; (1a0020c8 <usbDeviceKeyboardInit+0x88>)
1a00207a:	930c      	str	r3, [sp, #48]	; 0x30
1a00207c:	4b13      	ldr	r3, [pc, #76]	; (1a0020cc <usbDeviceKeyboardInit+0x8c>)
1a00207e:	881b      	ldrh	r3, [r3, #0]
1a002080:	f8ad 3000 	strh.w	r3, [sp]
1a002084:	2400      	movs	r4, #0
1a002086:	f88d 4002 	strb.w	r4, [sp, #2]
1a00208a:	4b11      	ldr	r3, [pc, #68]	; (1a0020d0 <usbDeviceKeyboardInit+0x90>)
1a00208c:	9301      	str	r3, [sp, #4]
1a00208e:	f8cd d018 	str.w	sp, [sp, #24]
1a002092:	4b10      	ldr	r3, [pc, #64]	; (1a0020d4 <usbDeviceKeyboardInit+0x94>)
1a002094:	681b      	ldr	r3, [r3, #0]
1a002096:	691b      	ldr	r3, [r3, #16]
1a002098:	685b      	ldr	r3, [r3, #4]
1a00209a:	a902      	add	r1, sp, #8
1a00209c:	4628      	mov	r0, r5
1a00209e:	4798      	blx	r3
1a0020a0:	9b02      	ldr	r3, [sp, #8]
1a0020a2:	6033      	str	r3, [r6, #0]
1a0020a4:	9b03      	ldr	r3, [sp, #12]
1a0020a6:	603b      	str	r3, [r7, #0]
1a0020a8:	4b0b      	ldr	r3, [pc, #44]	; (1a0020d8 <usbDeviceKeyboardInit+0x98>)
1a0020aa:	601d      	str	r5, [r3, #0]
1a0020ac:	731c      	strb	r4, [r3, #12]
1a0020ae:	b011      	add	sp, #68	; 0x44
1a0020b0:	bdf0      	pop	{r4, r5, r6, r7, pc}
1a0020b2:	f04f 30ff 	mov.w	r0, #4294967295
1a0020b6:	4770      	bx	lr
1a0020b8:	f04f 30ff 	mov.w	r0, #4294967295
1a0020bc:	e7f7      	b.n	1a0020ae <usbDeviceKeyboardInit+0x6e>
1a0020be:	bf00      	nop
1a0020c0:	1a002001 	.word	0x1a002001
1a0020c4:	1a001fb9 	.word	0x1a001fb9
1a0020c8:	1a001f85 	.word	0x1a001f85
1a0020cc:	1a003096 	.word	0x1a003096
1a0020d0:	1a003098 	.word	0x1a003098
1a0020d4:	1000017c 	.word	0x1000017c
1a0020d8:	10000150 	.word	0x10000150

1a0020dc <EP0_patch>:
 * Private functions
 ****************************************************************************/

/* EP0_patch part of WORKAROUND for artf45032. */
ErrorCode_t EP0_patch(USBD_HANDLE_T hUsb, void *data, uint32_t event)
{
1a0020dc:	b510      	push	{r4, lr}
   switch (event) {
1a0020de:	4613      	mov	r3, r2
1a0020e0:	b16a      	cbz	r2, 1a0020fe <EP0_patch+0x22>
1a0020e2:	2a02      	cmp	r2, #2
1a0020e4:	d908      	bls.n	1a0020f8 <EP0_patch+0x1c>
1a0020e6:	2a04      	cmp	r2, #4
1a0020e8:	d109      	bne.n	1a0020fe <EP0_patch+0x22>
   case USB_EVT_OUT_NAK:
      if (g_ep0RxBusy) {
1a0020ea:	4a08      	ldr	r2, [pc, #32]	; (1a00210c <EP0_patch+0x30>)
1a0020ec:	6812      	ldr	r2, [r2, #0]
1a0020ee:	b95a      	cbnz	r2, 1a002108 <EP0_patch+0x2c>
         /* we already queued the buffer so ignore this NAK event. */
         return LPC_OK;
      }
      else {
         /* Mark EP0_RX buffer as busy and allow base handler to queue the buffer. */
         g_ep0RxBusy = 1;
1a0020f0:	4a06      	ldr	r2, [pc, #24]	; (1a00210c <EP0_patch+0x30>)
1a0020f2:	2401      	movs	r4, #1
1a0020f4:	6014      	str	r4, [r2, #0]
      }
      break;
1a0020f6:	e002      	b.n	1a0020fe <EP0_patch+0x22>

   case USB_EVT_SETUP:  /* reset the flag when new setup sequence starts */
   case USB_EVT_OUT:
      /* we received the packet so clear the flag. */
      g_ep0RxBusy = 0;
1a0020f8:	4a04      	ldr	r2, [pc, #16]	; (1a00210c <EP0_patch+0x30>)
1a0020fa:	2400      	movs	r4, #0
1a0020fc:	6014      	str	r4, [r2, #0]
      break;
1a0020fe:	461a      	mov	r2, r3
   }
   return g_Ep0BaseHdlr(hUsb, data, event);
1a002100:	4b03      	ldr	r3, [pc, #12]	; (1a002110 <EP0_patch+0x34>)
1a002102:	681b      	ldr	r3, [r3, #0]
1a002104:	4798      	blx	r3
}
1a002106:	bd10      	pop	{r4, pc}
         return LPC_OK;
1a002108:	2000      	movs	r0, #0
1a00210a:	e7fc      	b.n	1a002106 <EP0_patch+0x2a>
1a00210c:	10000168 	.word	0x10000168
1a002110:	10000164 	.word	0x10000164

1a002114 <usbDeviceLpcInterruptPrioritySet>:
    NVIC->IP[((uint32_t)IRQn)]               = (uint8_t)((priority << (8U - __NVIC_PRIO_BITS)) & (uint32_t)0xFFUL);
1a002114:	0140      	lsls	r0, r0, #5
1a002116:	b2c0      	uxtb	r0, r0
1a002118:	4b01      	ldr	r3, [pc, #4]	; (1a002120 <usbDeviceLpcInterruptPrioritySet+0xc>)
1a00211a:	f883 0308 	strb.w	r0, [r3, #776]	; 0x308
   return ret;
}

static void usbDeviceLpcInterruptPrioritySet( uint32_t priority ){
   NVIC_SetPriority( LPC_USB_IRQ, priority );
}
1a00211e:	4770      	bx	lr
1a002120:	e000e100 	.word	0xe000e100

1a002124 <usbDeviceLpcInterruptInit>:

static void usbDeviceLpcInterruptInit( void ){
1a002124:	b508      	push	{r3, lr}
    NVIC->ISER[(((uint32_t)IRQn) >> 5UL)] = (uint32_t)(1UL << (((uint32_t)IRQn) & 0x1FUL));
1a002126:	4b06      	ldr	r3, [pc, #24]	; (1a002140 <usbDeviceLpcInterruptInit+0x1c>)
1a002128:	f44f 7280 	mov.w	r2, #256	; 0x100
1a00212c:	601a      	str	r2, [r3, #0]
    /*  enable USB interrupts */
   NVIC_EnableIRQ( LPC_USB_IRQ );
   /* now connect */
   USBD_API->hw->Connect( g_hUsb, 1 );
1a00212e:	4b05      	ldr	r3, [pc, #20]	; (1a002144 <usbDeviceLpcInterruptInit+0x20>)
1a002130:	681b      	ldr	r3, [r3, #0]
1a002132:	681b      	ldr	r3, [r3, #0]
1a002134:	689b      	ldr	r3, [r3, #8]
1a002136:	2101      	movs	r1, #1
1a002138:	4a03      	ldr	r2, [pc, #12]	; (1a002148 <usbDeviceLpcInterruptInit+0x24>)
1a00213a:	6810      	ldr	r0, [r2, #0]
1a00213c:	4798      	blx	r3
}
1a00213e:	bd08      	pop	{r3, pc}
1a002140:	e000e100 	.word	0xe000e100
1a002144:	1000017c 	.word	0x1000017c
1a002148:	1000016c 	.word	0x1000016c

1a00214c <usbDeviceLpcInit>:
                                    USBD_API_INIT_PARAM_T* usb_param){
1a00214c:	b5f8      	push	{r3, r4, r5, r6, r7, lr}
1a00214e:	4604      	mov	r4, r0
1a002150:	460d      	mov	r5, r1
   USB_init_pin_clk();
1a002152:	f7fe fee9 	bl	1a000f28 <Chip_USB0_Init>
   g_pUsbApi = (const USBD_API_T *) LPC_ROM_API->usbdApiBase;
1a002156:	4b18      	ldr	r3, [pc, #96]	; (1a0021b8 <usbDeviceLpcInit+0x6c>)
1a002158:	69db      	ldr	r3, [r3, #28]
1a00215a:	4e18      	ldr	r6, [pc, #96]	; (1a0021bc <usbDeviceLpcInit+0x70>)
1a00215c:	6033      	str	r3, [r6, #0]
   uint8_t max_num_ep = usb_param->max_num_ep;
1a00215e:	4628      	mov	r0, r5
1a002160:	f810 7f0c 	ldrb.w	r7, [r0, #12]!
   memset((void *) usb_param, 0, sizeof(USBD_API_INIT_PARAM_T));   
1a002164:	2238      	movs	r2, #56	; 0x38
1a002166:	2100      	movs	r1, #0
1a002168:	f000 fc83 	bl	1a002a72 <memset>
   usb_param->usb_reg_base = LPC_USB_BASE;
1a00216c:	4b14      	ldr	r3, [pc, #80]	; (1a0021c0 <usbDeviceLpcInit+0x74>)
1a00216e:	602b      	str	r3, [r5, #0]
   usb_param->mem_base = USB_STACK_MEM_BASE;
1a002170:	f04f 5300 	mov.w	r3, #536870912	; 0x20000000
1a002174:	606b      	str	r3, [r5, #4]
   usb_param->mem_size = USB_STACK_MEM_SIZE;   
1a002176:	f44f 5300 	mov.w	r3, #8192	; 0x2000
1a00217a:	60ab      	str	r3, [r5, #8]
   usb_param->max_num_ep = max_num_ep;
1a00217c:	732f      	strb	r7, [r5, #12]
   desc->device_desc = (uint8_t *) USB_DeviceDescriptor;
1a00217e:	4b11      	ldr	r3, [pc, #68]	; (1a0021c4 <usbDeviceLpcInit+0x78>)
1a002180:	6023      	str	r3, [r4, #0]
   desc->string_desc = (uint8_t *) USB_StringDescriptor;
1a002182:	4b11      	ldr	r3, [pc, #68]	; (1a0021c8 <usbDeviceLpcInit+0x7c>)
1a002184:	6063      	str	r3, [r4, #4]
      desc->high_speed_desc = USB_HsConfigDescriptor;
1a002186:	4b11      	ldr	r3, [pc, #68]	; (1a0021cc <usbDeviceLpcInit+0x80>)
1a002188:	60e3      	str	r3, [r4, #12]
      desc->full_speed_desc = USB_FsConfigDescriptor;
1a00218a:	4b11      	ldr	r3, [pc, #68]	; (1a0021d0 <usbDeviceLpcInit+0x84>)
1a00218c:	60a3      	str	r3, [r4, #8]
      desc->device_qualifier = (uint8_t *) USB_DeviceQualifier;
1a00218e:	4b11      	ldr	r3, [pc, #68]	; (1a0021d4 <usbDeviceLpcInit+0x88>)
1a002190:	6123      	str	r3, [r4, #16]
   ret = USBD_API->hw->Init(&g_hUsb, desc, usb_param);
1a002192:	6833      	ldr	r3, [r6, #0]
1a002194:	681b      	ldr	r3, [r3, #0]
1a002196:	685b      	ldr	r3, [r3, #4]
1a002198:	462a      	mov	r2, r5
1a00219a:	4621      	mov	r1, r4
1a00219c:	480e      	ldr	r0, [pc, #56]	; (1a0021d8 <usbDeviceLpcInit+0x8c>)
1a00219e:	4798      	blx	r3
   if (ret == LPC_OK) {      
1a0021a0:	4603      	mov	r3, r0
1a0021a2:	b930      	cbnz	r0, 1a0021b2 <usbDeviceLpcInit+0x66>
      pCtrl = (USB_CORE_CTRL_T *) g_hUsb; /* convert the handle to control structure */
1a0021a4:	4a0c      	ldr	r2, [pc, #48]	; (1a0021d8 <usbDeviceLpcInit+0x8c>)
1a0021a6:	6812      	ldr	r2, [r2, #0]
      g_Ep0BaseHdlr = pCtrl->ep_event_hdlr[0];/* retrieve the default EP0_OUT handler */
1a0021a8:	6d90      	ldr	r0, [r2, #88]	; 0x58
1a0021aa:	490c      	ldr	r1, [pc, #48]	; (1a0021dc <usbDeviceLpcInit+0x90>)
1a0021ac:	6008      	str	r0, [r1, #0]
      pCtrl->ep_event_hdlr[0] = EP0_patch;/* set our patch routine as EP0_OUT handler */
1a0021ae:	490c      	ldr	r1, [pc, #48]	; (1a0021e0 <usbDeviceLpcInit+0x94>)
1a0021b0:	6591      	str	r1, [r2, #88]	; 0x58
}
1a0021b2:	4618      	mov	r0, r3
1a0021b4:	bdf8      	pop	{r3, r4, r5, r6, r7, pc}
1a0021b6:	bf00      	nop
1a0021b8:	10400100 	.word	0x10400100
1a0021bc:	1000017c 	.word	0x1000017c
1a0021c0:	40006000 	.word	0x40006000
1a0021c4:	1a002ff4 	.word	0x1a002ff4
1a0021c8:	1a003014 	.word	0x1a003014
1a0021cc:	10000024 	.word	0x10000024
1a0021d0:	10000000 	.word	0x10000000
1a0021d4:	1a003008 	.word	0x1a003008
1a0021d8:	1000016c 	.word	0x1000016c
1a0021dc:	10000164 	.word	0x10000164
1a0021e0:	1a0020dd 	.word	0x1a0020dd

1a0021e4 <USB0_IRQHandler>:
void USB_IRQHandler(void){
1a0021e4:	b508      	push	{r3, lr}
   USBD_API->hw->ISR(g_hUsb);
1a0021e6:	4b04      	ldr	r3, [pc, #16]	; (1a0021f8 <USB0_IRQHandler+0x14>)
1a0021e8:	681b      	ldr	r3, [r3, #0]
1a0021ea:	681b      	ldr	r3, [r3, #0]
1a0021ec:	68db      	ldr	r3, [r3, #12]
1a0021ee:	4a03      	ldr	r2, [pc, #12]	; (1a0021fc <USB0_IRQHandler+0x18>)
1a0021f0:	6810      	ldr	r0, [r2, #0]
1a0021f2:	4798      	blx	r3
}
1a0021f4:	bd08      	pop	{r3, pc}
1a0021f6:	bf00      	nop
1a0021f8:	1000017c 	.word	0x1000017c
1a0021fc:	1000016c 	.word	0x1000016c

1a002200 <find_IntfDesc>:
   while (pD->bLength) {
1a002200:	e000      	b.n	1a002204 <find_IntfDesc+0x4>
      next_desc_adr = (uint32_t) pD + pD->bLength;
1a002202:	4418      	add	r0, r3
   while (pD->bLength) {
1a002204:	7803      	ldrb	r3, [r0, #0]
1a002206:	b133      	cbz	r3, 1a002216 <find_IntfDesc+0x16>
      if (pD->bDescriptorType == USB_INTERFACE_DESCRIPTOR_TYPE) {
1a002208:	7842      	ldrb	r2, [r0, #1]
1a00220a:	2a04      	cmp	r2, #4
1a00220c:	d1f9      	bne.n	1a002202 <find_IntfDesc+0x2>
         if (pIntfDesc->bInterfaceClass == intfClass) {
1a00220e:	7942      	ldrb	r2, [r0, #5]
1a002210:	428a      	cmp	r2, r1
1a002212:	d1f6      	bne.n	1a002202 <find_IntfDesc+0x2>
1a002214:	e000      	b.n	1a002218 <find_IntfDesc+0x18>
1a002216:	2000      	movs	r0, #0
}
1a002218:	4770      	bx	lr
1a00221a:	Address 0x1a00221a is out of bounds.


1a00221c <usbDeviceInit>:
bool_t usbDeviceInit( UsbSubClass_t subclass ){
1a00221c:	b500      	push	{lr}
1a00221e:	b097      	sub	sp, #92	; 0x5c
   switch(subclass){
1a002220:	2805      	cmp	r0, #5
1a002222:	d85c      	bhi.n	1a0022de <usbDeviceInit+0xc2>
1a002224:	e8df f000 	tbb	[pc, r0]
1a002228:	37220a03 	.word	0x37220a03
1a00222c:	563c      	.short	0x563c
         printf("USB_HID_MOUSE\r\n");
1a00222e:	482e      	ldr	r0, [pc, #184]	; (1a0022e8 <usbDeviceInit+0xcc>)
1a002230:	f000 fd3e 	bl	1a002cb0 <puts>
   return FALSE;
1a002234:	2000      	movs	r0, #0
}
1a002236:	b017      	add	sp, #92	; 0x5c
1a002238:	f85d fb04 	ldr.w	pc, [sp], #4
         printf("USB_HID_KEYBOARD\r\n");
1a00223c:	482b      	ldr	r0, [pc, #172]	; (1a0022ec <usbDeviceInit+0xd0>)
1a00223e:	f000 fd37 	bl	1a002cb0 <puts>
         usb_param.max_num_ep = 2; // Keyboard has 2 endpoints
1a002242:	2302      	movs	r3, #2
1a002244:	f88d 3020 	strb.w	r3, [sp, #32]
         ret = usbDeviceLpcInit(&desc, &usb_param);
1a002248:	a905      	add	r1, sp, #20
1a00224a:	4668      	mov	r0, sp
1a00224c:	f7ff ff7e 	bl	1a00214c <usbDeviceLpcInit>
         ret = usbDeviceKeyboardInit(
1a002250:	ab07      	add	r3, sp, #28
1a002252:	aa06      	add	r2, sp, #24
1a002254:	4926      	ldr	r1, [pc, #152]	; (1a0022f0 <usbDeviceInit+0xd4>)
1a002256:	4827      	ldr	r0, [pc, #156]	; (1a0022f4 <usbDeviceInit+0xd8>)
1a002258:	6800      	ldr	r0, [r0, #0]
1a00225a:	f7ff fef1 	bl	1a002040 <usbDeviceKeyboardInit>
         if (ret == LPC_OK) {
1a00225e:	b108      	cbz	r0, 1a002264 <usbDeviceInit+0x48>
   return FALSE;
1a002260:	2000      	movs	r0, #0
1a002262:	e7e8      	b.n	1a002236 <usbDeviceInit+0x1a>
            usbDeviceLpcInterruptInit();
1a002264:	f7ff ff5e 	bl	1a002124 <usbDeviceLpcInterruptInit>
            return TRUE;
1a002268:	2001      	movs	r0, #1
1a00226a:	e7e4      	b.n	1a002236 <usbDeviceInit+0x1a>
         usb_param.max_num_ep = 2; // Keyboard has 2 endpoints
1a00226c:	2302      	movs	r3, #2
1a00226e:	f88d 3020 	strb.w	r3, [sp, #32]
         ret = usbDeviceLpcInit(&desc, &usb_param);
1a002272:	a905      	add	r1, sp, #20
1a002274:	4668      	mov	r0, sp
1a002276:	f7ff ff69 	bl	1a00214c <usbDeviceLpcInit>
         ret = usbDeviceGamepadInit(
1a00227a:	ab07      	add	r3, sp, #28
1a00227c:	aa06      	add	r2, sp, #24
1a00227e:	491c      	ldr	r1, [pc, #112]	; (1a0022f0 <usbDeviceInit+0xd4>)
1a002280:	481c      	ldr	r0, [pc, #112]	; (1a0022f4 <usbDeviceInit+0xd8>)
1a002282:	6800      	ldr	r0, [r0, #0]
1a002284:	f7fe f944 	bl	1a000510 <usbDeviceGamepadInit>
         if (ret == LPC_OK) {
1a002288:	b108      	cbz	r0, 1a00228e <usbDeviceInit+0x72>
   return FALSE;
1a00228a:	2000      	movs	r0, #0
1a00228c:	e7d3      	b.n	1a002236 <usbDeviceInit+0x1a>
            usbDeviceLpcInterruptInit();
1a00228e:	f7ff ff49 	bl	1a002124 <usbDeviceLpcInterruptInit>
            return TRUE;
1a002292:	2001      	movs	r0, #1
1a002294:	e7cf      	b.n	1a002236 <usbDeviceInit+0x1a>
         printf("USB_HID_GENERIC\r\n");
1a002296:	4818      	ldr	r0, [pc, #96]	; (1a0022f8 <usbDeviceInit+0xdc>)
1a002298:	f000 fd0a 	bl	1a002cb0 <puts>
   return FALSE;
1a00229c:	2000      	movs	r0, #0
      break;
1a00229e:	e7ca      	b.n	1a002236 <usbDeviceInit+0x1a>
         printf("USB_CDC_UART\r\n");
1a0022a0:	4816      	ldr	r0, [pc, #88]	; (1a0022fc <usbDeviceInit+0xe0>)
1a0022a2:	f000 fd05 	bl	1a002cb0 <puts>
         usb_param.max_num_ep = 4; // CDC Uart has 4 endpoints
1a0022a6:	2304      	movs	r3, #4
1a0022a8:	f88d 3020 	strb.w	r3, [sp, #32]
         ret = usbDeviceLpcInit(&desc, &usb_param);
1a0022ac:	a905      	add	r1, sp, #20
1a0022ae:	4668      	mov	r0, sp
1a0022b0:	f7ff ff4c 	bl	1a00214c <usbDeviceLpcInit>
         ret = cdcUartLpcInit(g_hUsb, &desc, &usb_param);
1a0022b4:	aa05      	add	r2, sp, #20
1a0022b6:	4669      	mov	r1, sp
1a0022b8:	4b0e      	ldr	r3, [pc, #56]	; (1a0022f4 <usbDeviceInit+0xd8>)
1a0022ba:	6818      	ldr	r0, [r3, #0]
1a0022bc:	f7ff fdf4 	bl	1a001ea8 <cdcUartLpcInit>
         if (ret == LPC_OK) {
1a0022c0:	b108      	cbz	r0, 1a0022c6 <usbDeviceInit+0xaa>
   return FALSE;
1a0022c2:	2000      	movs	r0, #0
1a0022c4:	e7b7      	b.n	1a002236 <usbDeviceInit+0x1a>
            usbDeviceLpcInterruptPrioritySet(5); // FreeRTOS Requiere prioridad>=5
1a0022c6:	2005      	movs	r0, #5
1a0022c8:	f7ff ff24 	bl	1a002114 <usbDeviceLpcInterruptPrioritySet>
            usbDeviceLpcInterruptInit();      
1a0022cc:	f7ff ff2a 	bl	1a002124 <usbDeviceLpcInterruptInit>
            return TRUE;   
1a0022d0:	2001      	movs	r0, #1
1a0022d2:	e7b0      	b.n	1a002236 <usbDeviceInit+0x1a>
         printf("USB_MSC_DRIVE\r\n");
1a0022d4:	480a      	ldr	r0, [pc, #40]	; (1a002300 <usbDeviceInit+0xe4>)
1a0022d6:	f000 fceb 	bl	1a002cb0 <puts>
         return TRUE;
1a0022da:	2001      	movs	r0, #1
1a0022dc:	e7ab      	b.n	1a002236 <usbDeviceInit+0x1a>
         printf("Error, you must use a valid USB device class\r\n");
1a0022de:	4809      	ldr	r0, [pc, #36]	; (1a002304 <usbDeviceInit+0xe8>)
1a0022e0:	f000 fce6 	bl	1a002cb0 <puts>
         return TRUE;
1a0022e4:	2001      	movs	r0, #1
1a0022e6:	e7a6      	b.n	1a002236 <usbDeviceInit+0x1a>
1a0022e8:	1a00339c 	.word	0x1a00339c
1a0022ec:	1a0033ac 	.word	0x1a0033ac
1a0022f0:	10000009 	.word	0x10000009
1a0022f4:	1000016c 	.word	0x1000016c
1a0022f8:	1a0033c0 	.word	0x1a0033c0
1a0022fc:	1a0033d4 	.word	0x1a0033d4
1a002300:	1a0033e4 	.word	0x1a0033e4
1a002304:	1a0033f4 	.word	0x1a0033f4

1a002308 <boardInit>:
1a002308:	b508      	push	{r3, lr}
1a00230a:	f7fe fe27 	bl	1a000f5c <SystemCoreClockUpdate>
1a00230e:	4b1a      	ldr	r3, [pc, #104]	; (1a002378 <boardInit+0x70>)
1a002310:	6818      	ldr	r0, [r3, #0]
1a002312:	f7ff fa4b 	bl	1a0017ac <cyclesCounterInit>
1a002316:	2001      	movs	r0, #1
1a002318:	2100      	movs	r1, #0
1a00231a:	f7ff fc49 	bl	1a001bb0 <tickInit>
1a00231e:	2105      	movs	r1, #5
1a002320:	2000      	movs	r0, #0
1a002322:	f7ff fa6b 	bl	1a0017fc <gpioInit>
1a002326:	2100      	movs	r1, #0
1a002328:	2024      	movs	r0, #36	; 0x24
1a00232a:	f7ff fa67 	bl	1a0017fc <gpioInit>
1a00232e:	2100      	movs	r1, #0
1a002330:	2025      	movs	r0, #37	; 0x25
1a002332:	f7ff fa63 	bl	1a0017fc <gpioInit>
1a002336:	2100      	movs	r1, #0
1a002338:	2026      	movs	r0, #38	; 0x26
1a00233a:	f7ff fa5f 	bl	1a0017fc <gpioInit>
1a00233e:	2100      	movs	r1, #0
1a002340:	2027      	movs	r0, #39	; 0x27
1a002342:	f7ff fa5b 	bl	1a0017fc <gpioInit>
1a002346:	2101      	movs	r1, #1
1a002348:	2028      	movs	r0, #40	; 0x28
1a00234a:	f7ff fa57 	bl	1a0017fc <gpioInit>
1a00234e:	2101      	movs	r1, #1
1a002350:	2029      	movs	r0, #41	; 0x29
1a002352:	f7ff fa53 	bl	1a0017fc <gpioInit>
1a002356:	2101      	movs	r1, #1
1a002358:	202a      	movs	r0, #42	; 0x2a
1a00235a:	f7ff fa4f 	bl	1a0017fc <gpioInit>
1a00235e:	2101      	movs	r1, #1
1a002360:	202b      	movs	r0, #43	; 0x2b
1a002362:	f7ff fa4b 	bl	1a0017fc <gpioInit>
1a002366:	2101      	movs	r1, #1
1a002368:	202c      	movs	r0, #44	; 0x2c
1a00236a:	f7ff fa47 	bl	1a0017fc <gpioInit>
1a00236e:	2101      	movs	r1, #1
1a002370:	202d      	movs	r0, #45	; 0x2d
1a002372:	f7ff fa43 	bl	1a0017fc <gpioInit>
1a002376:	bd08      	pop	{r3, pc}
1a002378:	10000178 	.word	0x10000178

1a00237c <delay>:
1a00237c:	e92d 43f8 	stmdb	sp!, {r3, r4, r5, r6, r7, r8, r9, lr}
1a002380:	4680      	mov	r8, r0
1a002382:	4689      	mov	r9, r1
1a002384:	f7ff fc02 	bl	1a001b8c <tickRead>
1a002388:	4606      	mov	r6, r0
1a00238a:	460f      	mov	r7, r1
1a00238c:	f7ff fbfe 	bl	1a001b8c <tickRead>
1a002390:	1b84      	subs	r4, r0, r6
1a002392:	eb61 0507 	sbc.w	r5, r1, r7
1a002396:	4b06      	ldr	r3, [pc, #24]	; (1a0023b0 <delay+0x34>)
1a002398:	e9d3 2300 	ldrd	r2, r3, [r3]
1a00239c:	4640      	mov	r0, r8
1a00239e:	4649      	mov	r1, r9
1a0023a0:	f000 f808 	bl	1a0023b4 <__aeabi_uldivmod>
1a0023a4:	428d      	cmp	r5, r1
1a0023a6:	bf08      	it	eq
1a0023a8:	4284      	cmpeq	r4, r0
1a0023aa:	d3ef      	bcc.n	1a00238c <delay+0x10>
1a0023ac:	e8bd 83f8 	ldmia.w	sp!, {r3, r4, r5, r6, r7, r8, r9, pc}
1a0023b0:	10000088 	.word	0x10000088

1a0023b4 <__aeabi_uldivmod>:
1a0023b4:	b953      	cbnz	r3, 1a0023cc <__aeabi_uldivmod+0x18>
1a0023b6:	b94a      	cbnz	r2, 1a0023cc <__aeabi_uldivmod+0x18>
1a0023b8:	2900      	cmp	r1, #0
1a0023ba:	bf08      	it	eq
1a0023bc:	2800      	cmpeq	r0, #0
1a0023be:	bf1c      	itt	ne
1a0023c0:	f04f 31ff 	movne.w	r1, #4294967295
1a0023c4:	f04f 30ff 	movne.w	r0, #4294967295
1a0023c8:	f000 b974 	b.w	1a0026b4 <__aeabi_idiv0>
1a0023cc:	f1ad 0c08 	sub.w	ip, sp, #8
1a0023d0:	e96d ce04 	strd	ip, lr, [sp, #-16]!
1a0023d4:	f000 f806 	bl	1a0023e4 <__udivmoddi4>
1a0023d8:	f8dd e004 	ldr.w	lr, [sp, #4]
1a0023dc:	e9dd 2302 	ldrd	r2, r3, [sp, #8]
1a0023e0:	b004      	add	sp, #16
1a0023e2:	4770      	bx	lr

1a0023e4 <__udivmoddi4>:
1a0023e4:	e92d 47f0 	stmdb	sp!, {r4, r5, r6, r7, r8, r9, sl, lr}
1a0023e8:	9e08      	ldr	r6, [sp, #32]
1a0023ea:	4604      	mov	r4, r0
1a0023ec:	4688      	mov	r8, r1
1a0023ee:	2b00      	cmp	r3, #0
1a0023f0:	f040 8085 	bne.w	1a0024fe <__udivmoddi4+0x11a>
1a0023f4:	428a      	cmp	r2, r1
1a0023f6:	4615      	mov	r5, r2
1a0023f8:	d948      	bls.n	1a00248c <__udivmoddi4+0xa8>
1a0023fa:	fab2 f282 	clz	r2, r2
1a0023fe:	b14a      	cbz	r2, 1a002414 <__udivmoddi4+0x30>
1a002400:	f1c2 0720 	rsb	r7, r2, #32
1a002404:	fa01 f302 	lsl.w	r3, r1, r2
1a002408:	fa20 f707 	lsr.w	r7, r0, r7
1a00240c:	4095      	lsls	r5, r2
1a00240e:	ea47 0803 	orr.w	r8, r7, r3
1a002412:	4094      	lsls	r4, r2
1a002414:	ea4f 4e15 	mov.w	lr, r5, lsr #16
1a002418:	0c23      	lsrs	r3, r4, #16
1a00241a:	fbb8 f7fe 	udiv	r7, r8, lr
1a00241e:	fa1f fc85 	uxth.w	ip, r5
1a002422:	fb0e 8817 	mls	r8, lr, r7, r8
1a002426:	ea43 4308 	orr.w	r3, r3, r8, lsl #16
1a00242a:	fb07 f10c 	mul.w	r1, r7, ip
1a00242e:	4299      	cmp	r1, r3
1a002430:	d909      	bls.n	1a002446 <__udivmoddi4+0x62>
1a002432:	18eb      	adds	r3, r5, r3
1a002434:	f107 30ff 	add.w	r0, r7, #4294967295
1a002438:	f080 80e3 	bcs.w	1a002602 <__udivmoddi4+0x21e>
1a00243c:	4299      	cmp	r1, r3
1a00243e:	f240 80e0 	bls.w	1a002602 <__udivmoddi4+0x21e>
1a002442:	3f02      	subs	r7, #2
1a002444:	442b      	add	r3, r5
1a002446:	1a5b      	subs	r3, r3, r1
1a002448:	b2a4      	uxth	r4, r4
1a00244a:	fbb3 f0fe 	udiv	r0, r3, lr
1a00244e:	fb0e 3310 	mls	r3, lr, r0, r3
1a002452:	ea44 4403 	orr.w	r4, r4, r3, lsl #16
1a002456:	fb00 fc0c 	mul.w	ip, r0, ip
1a00245a:	45a4      	cmp	ip, r4
1a00245c:	d909      	bls.n	1a002472 <__udivmoddi4+0x8e>
1a00245e:	192c      	adds	r4, r5, r4
1a002460:	f100 33ff 	add.w	r3, r0, #4294967295
1a002464:	f080 80cb 	bcs.w	1a0025fe <__udivmoddi4+0x21a>
1a002468:	45a4      	cmp	ip, r4
1a00246a:	f240 80c8 	bls.w	1a0025fe <__udivmoddi4+0x21a>
1a00246e:	3802      	subs	r0, #2
1a002470:	442c      	add	r4, r5
1a002472:	ea40 4007 	orr.w	r0, r0, r7, lsl #16
1a002476:	eba4 040c 	sub.w	r4, r4, ip
1a00247a:	2700      	movs	r7, #0
1a00247c:	b11e      	cbz	r6, 1a002486 <__udivmoddi4+0xa2>
1a00247e:	40d4      	lsrs	r4, r2
1a002480:	2300      	movs	r3, #0
1a002482:	e9c6 4300 	strd	r4, r3, [r6]
1a002486:	4639      	mov	r1, r7
1a002488:	e8bd 87f0 	ldmia.w	sp!, {r4, r5, r6, r7, r8, r9, sl, pc}
1a00248c:	2a00      	cmp	r2, #0
1a00248e:	d053      	beq.n	1a002538 <__udivmoddi4+0x154>
1a002490:	fab2 f282 	clz	r2, r2
1a002494:	2a00      	cmp	r2, #0
1a002496:	f040 80b6 	bne.w	1a002606 <__udivmoddi4+0x222>
1a00249a:	1b49      	subs	r1, r1, r5
1a00249c:	ea4f 4e15 	mov.w	lr, r5, lsr #16
1a0024a0:	fa1f f885 	uxth.w	r8, r5
1a0024a4:	2701      	movs	r7, #1
1a0024a6:	fbb1 fcfe 	udiv	ip, r1, lr
1a0024aa:	0c23      	lsrs	r3, r4, #16
1a0024ac:	fb0e 111c 	mls	r1, lr, ip, r1
1a0024b0:	ea43 4301 	orr.w	r3, r3, r1, lsl #16
1a0024b4:	fb08 f10c 	mul.w	r1, r8, ip
1a0024b8:	4299      	cmp	r1, r3
1a0024ba:	d907      	bls.n	1a0024cc <__udivmoddi4+0xe8>
1a0024bc:	18eb      	adds	r3, r5, r3
1a0024be:	f10c 30ff 	add.w	r0, ip, #4294967295
1a0024c2:	d202      	bcs.n	1a0024ca <__udivmoddi4+0xe6>
1a0024c4:	4299      	cmp	r1, r3
1a0024c6:	f200 80ec 	bhi.w	1a0026a2 <__udivmoddi4+0x2be>
1a0024ca:	4684      	mov	ip, r0
1a0024cc:	1a59      	subs	r1, r3, r1
1a0024ce:	b2a3      	uxth	r3, r4
1a0024d0:	fbb1 f0fe 	udiv	r0, r1, lr
1a0024d4:	fb0e 1410 	mls	r4, lr, r0, r1
1a0024d8:	ea43 4404 	orr.w	r4, r3, r4, lsl #16
1a0024dc:	fb08 f800 	mul.w	r8, r8, r0
1a0024e0:	45a0      	cmp	r8, r4
1a0024e2:	d907      	bls.n	1a0024f4 <__udivmoddi4+0x110>
1a0024e4:	192c      	adds	r4, r5, r4
1a0024e6:	f100 33ff 	add.w	r3, r0, #4294967295
1a0024ea:	d202      	bcs.n	1a0024f2 <__udivmoddi4+0x10e>
1a0024ec:	45a0      	cmp	r8, r4
1a0024ee:	f200 80dc 	bhi.w	1a0026aa <__udivmoddi4+0x2c6>
1a0024f2:	4618      	mov	r0, r3
1a0024f4:	eba4 0408 	sub.w	r4, r4, r8
1a0024f8:	ea40 400c 	orr.w	r0, r0, ip, lsl #16
1a0024fc:	e7be      	b.n	1a00247c <__udivmoddi4+0x98>
1a0024fe:	428b      	cmp	r3, r1
1a002500:	d908      	bls.n	1a002514 <__udivmoddi4+0x130>
1a002502:	2e00      	cmp	r6, #0
1a002504:	d078      	beq.n	1a0025f8 <__udivmoddi4+0x214>
1a002506:	2700      	movs	r7, #0
1a002508:	e9c6 0100 	strd	r0, r1, [r6]
1a00250c:	4638      	mov	r0, r7
1a00250e:	4639      	mov	r1, r7
1a002510:	e8bd 87f0 	ldmia.w	sp!, {r4, r5, r6, r7, r8, r9, sl, pc}
1a002514:	fab3 f783 	clz	r7, r3
1a002518:	b97f      	cbnz	r7, 1a00253a <__udivmoddi4+0x156>
1a00251a:	428b      	cmp	r3, r1
1a00251c:	d302      	bcc.n	1a002524 <__udivmoddi4+0x140>
1a00251e:	4282      	cmp	r2, r0
1a002520:	f200 80bd 	bhi.w	1a00269e <__udivmoddi4+0x2ba>
1a002524:	1a84      	subs	r4, r0, r2
1a002526:	eb61 0303 	sbc.w	r3, r1, r3
1a00252a:	2001      	movs	r0, #1
1a00252c:	4698      	mov	r8, r3
1a00252e:	2e00      	cmp	r6, #0
1a002530:	d0a9      	beq.n	1a002486 <__udivmoddi4+0xa2>
1a002532:	e9c6 4800 	strd	r4, r8, [r6]
1a002536:	e7a6      	b.n	1a002486 <__udivmoddi4+0xa2>
1a002538:	deff      	udf	#255	; 0xff
1a00253a:	f1c7 0520 	rsb	r5, r7, #32
1a00253e:	40bb      	lsls	r3, r7
1a002540:	fa22 fc05 	lsr.w	ip, r2, r5
1a002544:	ea4c 0c03 	orr.w	ip, ip, r3
1a002548:	fa01 f407 	lsl.w	r4, r1, r7
1a00254c:	fa20 f805 	lsr.w	r8, r0, r5
1a002550:	fa21 f305 	lsr.w	r3, r1, r5
1a002554:	ea4f 4e1c 	mov.w	lr, ip, lsr #16
1a002558:	ea48 0404 	orr.w	r4, r8, r4
1a00255c:	fbb3 f9fe 	udiv	r9, r3, lr
1a002560:	0c21      	lsrs	r1, r4, #16
1a002562:	fb0e 3319 	mls	r3, lr, r9, r3
1a002566:	fa1f f88c 	uxth.w	r8, ip
1a00256a:	ea41 4303 	orr.w	r3, r1, r3, lsl #16
1a00256e:	fb09 fa08 	mul.w	sl, r9, r8
1a002572:	459a      	cmp	sl, r3
1a002574:	fa02 f207 	lsl.w	r2, r2, r7
1a002578:	fa00 f107 	lsl.w	r1, r0, r7
1a00257c:	d90b      	bls.n	1a002596 <__udivmoddi4+0x1b2>
1a00257e:	eb1c 0303 	adds.w	r3, ip, r3
1a002582:	f109 30ff 	add.w	r0, r9, #4294967295
1a002586:	f080 8088 	bcs.w	1a00269a <__udivmoddi4+0x2b6>
1a00258a:	459a      	cmp	sl, r3
1a00258c:	f240 8085 	bls.w	1a00269a <__udivmoddi4+0x2b6>
1a002590:	f1a9 0902 	sub.w	r9, r9, #2
1a002594:	4463      	add	r3, ip
1a002596:	eba3 030a 	sub.w	r3, r3, sl
1a00259a:	b2a4      	uxth	r4, r4
1a00259c:	fbb3 f0fe 	udiv	r0, r3, lr
1a0025a0:	fb0e 3310 	mls	r3, lr, r0, r3
1a0025a4:	ea44 4403 	orr.w	r4, r4, r3, lsl #16
1a0025a8:	fb00 f808 	mul.w	r8, r0, r8
1a0025ac:	45a0      	cmp	r8, r4
1a0025ae:	d908      	bls.n	1a0025c2 <__udivmoddi4+0x1de>
1a0025b0:	eb1c 0404 	adds.w	r4, ip, r4
1a0025b4:	f100 33ff 	add.w	r3, r0, #4294967295
1a0025b8:	d26b      	bcs.n	1a002692 <__udivmoddi4+0x2ae>
1a0025ba:	45a0      	cmp	r8, r4
1a0025bc:	d969      	bls.n	1a002692 <__udivmoddi4+0x2ae>
1a0025be:	3802      	subs	r0, #2
1a0025c0:	4464      	add	r4, ip
1a0025c2:	ea40 4009 	orr.w	r0, r0, r9, lsl #16
1a0025c6:	eba4 0408 	sub.w	r4, r4, r8
1a0025ca:	fba0 8902 	umull	r8, r9, r0, r2
1a0025ce:	454c      	cmp	r4, r9
1a0025d0:	46c6      	mov	lr, r8
1a0025d2:	464b      	mov	r3, r9
1a0025d4:	d354      	bcc.n	1a002680 <__udivmoddi4+0x29c>
1a0025d6:	d051      	beq.n	1a00267c <__udivmoddi4+0x298>
1a0025d8:	2e00      	cmp	r6, #0
1a0025da:	d069      	beq.n	1a0026b0 <__udivmoddi4+0x2cc>
1a0025dc:	ebb1 020e 	subs.w	r2, r1, lr
1a0025e0:	eb64 0403 	sbc.w	r4, r4, r3
1a0025e4:	fa04 f505 	lsl.w	r5, r4, r5
1a0025e8:	fa22 f307 	lsr.w	r3, r2, r7
1a0025ec:	40fc      	lsrs	r4, r7
1a0025ee:	431d      	orrs	r5, r3
1a0025f0:	e9c6 5400 	strd	r5, r4, [r6]
1a0025f4:	2700      	movs	r7, #0
1a0025f6:	e746      	b.n	1a002486 <__udivmoddi4+0xa2>
1a0025f8:	4637      	mov	r7, r6
1a0025fa:	4630      	mov	r0, r6
1a0025fc:	e743      	b.n	1a002486 <__udivmoddi4+0xa2>
1a0025fe:	4618      	mov	r0, r3
1a002600:	e737      	b.n	1a002472 <__udivmoddi4+0x8e>
1a002602:	4607      	mov	r7, r0
1a002604:	e71f      	b.n	1a002446 <__udivmoddi4+0x62>
1a002606:	f1c2 0320 	rsb	r3, r2, #32
1a00260a:	fa20 f703 	lsr.w	r7, r0, r3
1a00260e:	4095      	lsls	r5, r2
1a002610:	fa01 f002 	lsl.w	r0, r1, r2
1a002614:	fa21 f303 	lsr.w	r3, r1, r3
1a002618:	ea4f 4e15 	mov.w	lr, r5, lsr #16
1a00261c:	4338      	orrs	r0, r7
1a00261e:	0c01      	lsrs	r1, r0, #16
1a002620:	fbb3 f7fe 	udiv	r7, r3, lr
1a002624:	fa1f f885 	uxth.w	r8, r5
1a002628:	fb0e 3317 	mls	r3, lr, r7, r3
1a00262c:	ea41 4103 	orr.w	r1, r1, r3, lsl #16
1a002630:	fb07 f308 	mul.w	r3, r7, r8
1a002634:	428b      	cmp	r3, r1
1a002636:	fa04 f402 	lsl.w	r4, r4, r2
1a00263a:	d907      	bls.n	1a00264c <__udivmoddi4+0x268>
1a00263c:	1869      	adds	r1, r5, r1
1a00263e:	f107 3cff 	add.w	ip, r7, #4294967295
1a002642:	d228      	bcs.n	1a002696 <__udivmoddi4+0x2b2>
1a002644:	428b      	cmp	r3, r1
1a002646:	d926      	bls.n	1a002696 <__udivmoddi4+0x2b2>
1a002648:	3f02      	subs	r7, #2
1a00264a:	4429      	add	r1, r5
1a00264c:	1acb      	subs	r3, r1, r3
1a00264e:	b281      	uxth	r1, r0
1a002650:	fbb3 f0fe 	udiv	r0, r3, lr
1a002654:	fb0e 3310 	mls	r3, lr, r0, r3
1a002658:	ea41 4103 	orr.w	r1, r1, r3, lsl #16
1a00265c:	fb00 f308 	mul.w	r3, r0, r8
1a002660:	428b      	cmp	r3, r1
1a002662:	d907      	bls.n	1a002674 <__udivmoddi4+0x290>
1a002664:	1869      	adds	r1, r5, r1
1a002666:	f100 3cff 	add.w	ip, r0, #4294967295
1a00266a:	d210      	bcs.n	1a00268e <__udivmoddi4+0x2aa>
1a00266c:	428b      	cmp	r3, r1
1a00266e:	d90e      	bls.n	1a00268e <__udivmoddi4+0x2aa>
1a002670:	3802      	subs	r0, #2
1a002672:	4429      	add	r1, r5
1a002674:	1ac9      	subs	r1, r1, r3
1a002676:	ea40 4707 	orr.w	r7, r0, r7, lsl #16
1a00267a:	e714      	b.n	1a0024a6 <__udivmoddi4+0xc2>
1a00267c:	4541      	cmp	r1, r8
1a00267e:	d2ab      	bcs.n	1a0025d8 <__udivmoddi4+0x1f4>
1a002680:	ebb8 0e02 	subs.w	lr, r8, r2
1a002684:	eb69 020c 	sbc.w	r2, r9, ip
1a002688:	3801      	subs	r0, #1
1a00268a:	4613      	mov	r3, r2
1a00268c:	e7a4      	b.n	1a0025d8 <__udivmoddi4+0x1f4>
1a00268e:	4660      	mov	r0, ip
1a002690:	e7f0      	b.n	1a002674 <__udivmoddi4+0x290>
1a002692:	4618      	mov	r0, r3
1a002694:	e795      	b.n	1a0025c2 <__udivmoddi4+0x1de>
1a002696:	4667      	mov	r7, ip
1a002698:	e7d8      	b.n	1a00264c <__udivmoddi4+0x268>
1a00269a:	4681      	mov	r9, r0
1a00269c:	e77b      	b.n	1a002596 <__udivmoddi4+0x1b2>
1a00269e:	4638      	mov	r0, r7
1a0026a0:	e745      	b.n	1a00252e <__udivmoddi4+0x14a>
1a0026a2:	f1ac 0c02 	sub.w	ip, ip, #2
1a0026a6:	442b      	add	r3, r5
1a0026a8:	e710      	b.n	1a0024cc <__udivmoddi4+0xe8>
1a0026aa:	3802      	subs	r0, #2
1a0026ac:	442c      	add	r4, r5
1a0026ae:	e721      	b.n	1a0024f4 <__udivmoddi4+0x110>
1a0026b0:	4637      	mov	r7, r6
1a0026b2:	e6e8      	b.n	1a002486 <__udivmoddi4+0xa2>

1a0026b4 <__aeabi_idiv0>:
1a0026b4:	4770      	bx	lr
1a0026b6:	bf00      	nop

1a0026b8 <__sflush_r>:
1a0026b8:	898a      	ldrh	r2, [r1, #12]
1a0026ba:	e92d 41f0 	stmdb	sp!, {r4, r5, r6, r7, r8, lr}
1a0026be:	4605      	mov	r5, r0
1a0026c0:	0710      	lsls	r0, r2, #28
1a0026c2:	460c      	mov	r4, r1
1a0026c4:	d458      	bmi.n	1a002778 <__sflush_r+0xc0>
1a0026c6:	684b      	ldr	r3, [r1, #4]
1a0026c8:	2b00      	cmp	r3, #0
1a0026ca:	dc05      	bgt.n	1a0026d8 <__sflush_r+0x20>
1a0026cc:	6c0b      	ldr	r3, [r1, #64]	; 0x40
1a0026ce:	2b00      	cmp	r3, #0
1a0026d0:	dc02      	bgt.n	1a0026d8 <__sflush_r+0x20>
1a0026d2:	2000      	movs	r0, #0
1a0026d4:	e8bd 81f0 	ldmia.w	sp!, {r4, r5, r6, r7, r8, pc}
1a0026d8:	6ae6      	ldr	r6, [r4, #44]	; 0x2c
1a0026da:	2e00      	cmp	r6, #0
1a0026dc:	d0f9      	beq.n	1a0026d2 <__sflush_r+0x1a>
1a0026de:	2300      	movs	r3, #0
1a0026e0:	f412 5280 	ands.w	r2, r2, #4096	; 0x1000
1a0026e4:	682f      	ldr	r7, [r5, #0]
1a0026e6:	602b      	str	r3, [r5, #0]
1a0026e8:	d032      	beq.n	1a002750 <__sflush_r+0x98>
1a0026ea:	6d60      	ldr	r0, [r4, #84]	; 0x54
1a0026ec:	89a3      	ldrh	r3, [r4, #12]
1a0026ee:	075a      	lsls	r2, r3, #29
1a0026f0:	d505      	bpl.n	1a0026fe <__sflush_r+0x46>
1a0026f2:	6863      	ldr	r3, [r4, #4]
1a0026f4:	1ac0      	subs	r0, r0, r3
1a0026f6:	6b63      	ldr	r3, [r4, #52]	; 0x34
1a0026f8:	b10b      	cbz	r3, 1a0026fe <__sflush_r+0x46>
1a0026fa:	6c23      	ldr	r3, [r4, #64]	; 0x40
1a0026fc:	1ac0      	subs	r0, r0, r3
1a0026fe:	2300      	movs	r3, #0
1a002700:	4602      	mov	r2, r0
1a002702:	6ae6      	ldr	r6, [r4, #44]	; 0x2c
1a002704:	6a21      	ldr	r1, [r4, #32]
1a002706:	4628      	mov	r0, r5
1a002708:	47b0      	blx	r6
1a00270a:	1c43      	adds	r3, r0, #1
1a00270c:	89a3      	ldrh	r3, [r4, #12]
1a00270e:	d106      	bne.n	1a00271e <__sflush_r+0x66>
1a002710:	6829      	ldr	r1, [r5, #0]
1a002712:	291d      	cmp	r1, #29
1a002714:	d849      	bhi.n	1a0027aa <__sflush_r+0xf2>
1a002716:	4a2a      	ldr	r2, [pc, #168]	; (1a0027c0 <__sflush_r+0x108>)
1a002718:	40ca      	lsrs	r2, r1
1a00271a:	07d6      	lsls	r6, r2, #31
1a00271c:	d545      	bpl.n	1a0027aa <__sflush_r+0xf2>
1a00271e:	2200      	movs	r2, #0
1a002720:	6062      	str	r2, [r4, #4]
1a002722:	04d9      	lsls	r1, r3, #19
1a002724:	6922      	ldr	r2, [r4, #16]
1a002726:	6022      	str	r2, [r4, #0]
1a002728:	d504      	bpl.n	1a002734 <__sflush_r+0x7c>
1a00272a:	1c42      	adds	r2, r0, #1
1a00272c:	d101      	bne.n	1a002732 <__sflush_r+0x7a>
1a00272e:	682b      	ldr	r3, [r5, #0]
1a002730:	b903      	cbnz	r3, 1a002734 <__sflush_r+0x7c>
1a002732:	6560      	str	r0, [r4, #84]	; 0x54
1a002734:	6b61      	ldr	r1, [r4, #52]	; 0x34
1a002736:	602f      	str	r7, [r5, #0]
1a002738:	2900      	cmp	r1, #0
1a00273a:	d0ca      	beq.n	1a0026d2 <__sflush_r+0x1a>
1a00273c:	f104 0344 	add.w	r3, r4, #68	; 0x44
1a002740:	4299      	cmp	r1, r3
1a002742:	d002      	beq.n	1a00274a <__sflush_r+0x92>
1a002744:	4628      	mov	r0, r5
1a002746:	f000 f99d 	bl	1a002a84 <_free_r>
1a00274a:	2000      	movs	r0, #0
1a00274c:	6360      	str	r0, [r4, #52]	; 0x34
1a00274e:	e7c1      	b.n	1a0026d4 <__sflush_r+0x1c>
1a002750:	6a21      	ldr	r1, [r4, #32]
1a002752:	2301      	movs	r3, #1
1a002754:	4628      	mov	r0, r5
1a002756:	47b0      	blx	r6
1a002758:	1c41      	adds	r1, r0, #1
1a00275a:	d1c7      	bne.n	1a0026ec <__sflush_r+0x34>
1a00275c:	682b      	ldr	r3, [r5, #0]
1a00275e:	2b00      	cmp	r3, #0
1a002760:	d0c4      	beq.n	1a0026ec <__sflush_r+0x34>
1a002762:	2b1d      	cmp	r3, #29
1a002764:	d001      	beq.n	1a00276a <__sflush_r+0xb2>
1a002766:	2b16      	cmp	r3, #22
1a002768:	d101      	bne.n	1a00276e <__sflush_r+0xb6>
1a00276a:	602f      	str	r7, [r5, #0]
1a00276c:	e7b1      	b.n	1a0026d2 <__sflush_r+0x1a>
1a00276e:	89a3      	ldrh	r3, [r4, #12]
1a002770:	f043 0340 	orr.w	r3, r3, #64	; 0x40
1a002774:	81a3      	strh	r3, [r4, #12]
1a002776:	e7ad      	b.n	1a0026d4 <__sflush_r+0x1c>
1a002778:	690f      	ldr	r7, [r1, #16]
1a00277a:	2f00      	cmp	r7, #0
1a00277c:	d0a9      	beq.n	1a0026d2 <__sflush_r+0x1a>
1a00277e:	0793      	lsls	r3, r2, #30
1a002780:	680e      	ldr	r6, [r1, #0]
1a002782:	bf08      	it	eq
1a002784:	694b      	ldreq	r3, [r1, #20]
1a002786:	600f      	str	r7, [r1, #0]
1a002788:	bf18      	it	ne
1a00278a:	2300      	movne	r3, #0
1a00278c:	eba6 0807 	sub.w	r8, r6, r7
1a002790:	608b      	str	r3, [r1, #8]
1a002792:	f1b8 0f00 	cmp.w	r8, #0
1a002796:	dd9c      	ble.n	1a0026d2 <__sflush_r+0x1a>
1a002798:	4643      	mov	r3, r8
1a00279a:	463a      	mov	r2, r7
1a00279c:	6a21      	ldr	r1, [r4, #32]
1a00279e:	6aa6      	ldr	r6, [r4, #40]	; 0x28
1a0027a0:	4628      	mov	r0, r5
1a0027a2:	47b0      	blx	r6
1a0027a4:	2800      	cmp	r0, #0
1a0027a6:	dc06      	bgt.n	1a0027b6 <__sflush_r+0xfe>
1a0027a8:	89a3      	ldrh	r3, [r4, #12]
1a0027aa:	f043 0340 	orr.w	r3, r3, #64	; 0x40
1a0027ae:	81a3      	strh	r3, [r4, #12]
1a0027b0:	f04f 30ff 	mov.w	r0, #4294967295
1a0027b4:	e78e      	b.n	1a0026d4 <__sflush_r+0x1c>
1a0027b6:	4407      	add	r7, r0
1a0027b8:	eba8 0800 	sub.w	r8, r8, r0
1a0027bc:	e7e9      	b.n	1a002792 <__sflush_r+0xda>
1a0027be:	bf00      	nop
1a0027c0:	20400001 	.word	0x20400001

1a0027c4 <_fflush_r>:
1a0027c4:	b538      	push	{r3, r4, r5, lr}
1a0027c6:	690b      	ldr	r3, [r1, #16]
1a0027c8:	4605      	mov	r5, r0
1a0027ca:	460c      	mov	r4, r1
1a0027cc:	b913      	cbnz	r3, 1a0027d4 <_fflush_r+0x10>
1a0027ce:	2500      	movs	r5, #0
1a0027d0:	4628      	mov	r0, r5
1a0027d2:	bd38      	pop	{r3, r4, r5, pc}
1a0027d4:	b118      	cbz	r0, 1a0027de <_fflush_r+0x1a>
1a0027d6:	6983      	ldr	r3, [r0, #24]
1a0027d8:	b90b      	cbnz	r3, 1a0027de <_fflush_r+0x1a>
1a0027da:	f000 f887 	bl	1a0028ec <__sinit>
1a0027de:	4b14      	ldr	r3, [pc, #80]	; (1a002830 <_fflush_r+0x6c>)
1a0027e0:	429c      	cmp	r4, r3
1a0027e2:	d11b      	bne.n	1a00281c <_fflush_r+0x58>
1a0027e4:	686c      	ldr	r4, [r5, #4]
1a0027e6:	f9b4 300c 	ldrsh.w	r3, [r4, #12]
1a0027ea:	2b00      	cmp	r3, #0
1a0027ec:	d0ef      	beq.n	1a0027ce <_fflush_r+0xa>
1a0027ee:	6e62      	ldr	r2, [r4, #100]	; 0x64
1a0027f0:	07d0      	lsls	r0, r2, #31
1a0027f2:	d404      	bmi.n	1a0027fe <_fflush_r+0x3a>
1a0027f4:	0599      	lsls	r1, r3, #22
1a0027f6:	d402      	bmi.n	1a0027fe <_fflush_r+0x3a>
1a0027f8:	6da0      	ldr	r0, [r4, #88]	; 0x58
1a0027fa:	f000 f938 	bl	1a002a6e <__retarget_lock_acquire_recursive>
1a0027fe:	4628      	mov	r0, r5
1a002800:	4621      	mov	r1, r4
1a002802:	f7ff ff59 	bl	1a0026b8 <__sflush_r>
1a002806:	6e63      	ldr	r3, [r4, #100]	; 0x64
1a002808:	07da      	lsls	r2, r3, #31
1a00280a:	4605      	mov	r5, r0
1a00280c:	d4e0      	bmi.n	1a0027d0 <_fflush_r+0xc>
1a00280e:	89a3      	ldrh	r3, [r4, #12]
1a002810:	059b      	lsls	r3, r3, #22
1a002812:	d4dd      	bmi.n	1a0027d0 <_fflush_r+0xc>
1a002814:	6da0      	ldr	r0, [r4, #88]	; 0x58
1a002816:	f000 f92b 	bl	1a002a70 <__retarget_lock_release_recursive>
1a00281a:	e7d9      	b.n	1a0027d0 <_fflush_r+0xc>
1a00281c:	4b05      	ldr	r3, [pc, #20]	; (1a002834 <_fflush_r+0x70>)
1a00281e:	429c      	cmp	r4, r3
1a002820:	d101      	bne.n	1a002826 <_fflush_r+0x62>
1a002822:	68ac      	ldr	r4, [r5, #8]
1a002824:	e7df      	b.n	1a0027e6 <_fflush_r+0x22>
1a002826:	4b04      	ldr	r3, [pc, #16]	; (1a002838 <_fflush_r+0x74>)
1a002828:	429c      	cmp	r4, r3
1a00282a:	bf08      	it	eq
1a00282c:	68ec      	ldreq	r4, [r5, #12]
1a00282e:	e7da      	b.n	1a0027e6 <_fflush_r+0x22>
1a002830:	1a003444 	.word	0x1a003444
1a002834:	1a003464 	.word	0x1a003464
1a002838:	1a003424 	.word	0x1a003424

1a00283c <std>:
1a00283c:	2300      	movs	r3, #0
1a00283e:	b510      	push	{r4, lr}
1a002840:	4604      	mov	r4, r0
1a002842:	e9c0 3300 	strd	r3, r3, [r0]
1a002846:	6083      	str	r3, [r0, #8]
1a002848:	8181      	strh	r1, [r0, #12]
1a00284a:	6643      	str	r3, [r0, #100]	; 0x64
1a00284c:	81c2      	strh	r2, [r0, #14]
1a00284e:	e9c0 3304 	strd	r3, r3, [r0, #16]
1a002852:	6183      	str	r3, [r0, #24]
1a002854:	4619      	mov	r1, r3
1a002856:	2208      	movs	r2, #8
1a002858:	305c      	adds	r0, #92	; 0x5c
1a00285a:	f000 f90a 	bl	1a002a72 <memset>
1a00285e:	4b05      	ldr	r3, [pc, #20]	; (1a002874 <std+0x38>)
1a002860:	6263      	str	r3, [r4, #36]	; 0x24
1a002862:	4b05      	ldr	r3, [pc, #20]	; (1a002878 <std+0x3c>)
1a002864:	62a3      	str	r3, [r4, #40]	; 0x28
1a002866:	4b05      	ldr	r3, [pc, #20]	; (1a00287c <std+0x40>)
1a002868:	62e3      	str	r3, [r4, #44]	; 0x2c
1a00286a:	4b05      	ldr	r3, [pc, #20]	; (1a002880 <std+0x44>)
1a00286c:	6224      	str	r4, [r4, #32]
1a00286e:	6323      	str	r3, [r4, #48]	; 0x30
1a002870:	bd10      	pop	{r4, pc}
1a002872:	bf00      	nop
1a002874:	1a002cc1 	.word	0x1a002cc1
1a002878:	1a002ce3 	.word	0x1a002ce3
1a00287c:	1a002d1b 	.word	0x1a002d1b
1a002880:	1a002d3f 	.word	0x1a002d3f

1a002884 <_cleanup_r>:
1a002884:	4901      	ldr	r1, [pc, #4]	; (1a00288c <_cleanup_r+0x8>)
1a002886:	f000 b8af 	b.w	1a0029e8 <_fwalk_reent>
1a00288a:	bf00      	nop
1a00288c:	1a0027c5 	.word	0x1a0027c5

1a002890 <__sfmoreglue>:
1a002890:	b570      	push	{r4, r5, r6, lr}
1a002892:	1e4a      	subs	r2, r1, #1
1a002894:	2568      	movs	r5, #104	; 0x68
1a002896:	4355      	muls	r5, r2
1a002898:	460e      	mov	r6, r1
1a00289a:	f105 0174 	add.w	r1, r5, #116	; 0x74
1a00289e:	f000 f93f 	bl	1a002b20 <_malloc_r>
1a0028a2:	4604      	mov	r4, r0
1a0028a4:	b140      	cbz	r0, 1a0028b8 <__sfmoreglue+0x28>
1a0028a6:	2100      	movs	r1, #0
1a0028a8:	e9c0 1600 	strd	r1, r6, [r0]
1a0028ac:	300c      	adds	r0, #12
1a0028ae:	60a0      	str	r0, [r4, #8]
1a0028b0:	f105 0268 	add.w	r2, r5, #104	; 0x68
1a0028b4:	f000 f8dd 	bl	1a002a72 <memset>
1a0028b8:	4620      	mov	r0, r4
1a0028ba:	bd70      	pop	{r4, r5, r6, pc}

1a0028bc <__sfp_lock_acquire>:
1a0028bc:	4801      	ldr	r0, [pc, #4]	; (1a0028c4 <__sfp_lock_acquire+0x8>)
1a0028be:	f000 b8d6 	b.w	1a002a6e <__retarget_lock_acquire_recursive>
1a0028c2:	bf00      	nop
1a0028c4:	10000188 	.word	0x10000188

1a0028c8 <__sfp_lock_release>:
1a0028c8:	4801      	ldr	r0, [pc, #4]	; (1a0028d0 <__sfp_lock_release+0x8>)
1a0028ca:	f000 b8d1 	b.w	1a002a70 <__retarget_lock_release_recursive>
1a0028ce:	bf00      	nop
1a0028d0:	10000188 	.word	0x10000188

1a0028d4 <__sinit_lock_acquire>:
1a0028d4:	4801      	ldr	r0, [pc, #4]	; (1a0028dc <__sinit_lock_acquire+0x8>)
1a0028d6:	f000 b8ca 	b.w	1a002a6e <__retarget_lock_acquire_recursive>
1a0028da:	bf00      	nop
1a0028dc:	10000183 	.word	0x10000183

1a0028e0 <__sinit_lock_release>:
1a0028e0:	4801      	ldr	r0, [pc, #4]	; (1a0028e8 <__sinit_lock_release+0x8>)
1a0028e2:	f000 b8c5 	b.w	1a002a70 <__retarget_lock_release_recursive>
1a0028e6:	bf00      	nop
1a0028e8:	10000183 	.word	0x10000183

1a0028ec <__sinit>:
1a0028ec:	b510      	push	{r4, lr}
1a0028ee:	4604      	mov	r4, r0
1a0028f0:	f7ff fff0 	bl	1a0028d4 <__sinit_lock_acquire>
1a0028f4:	69a3      	ldr	r3, [r4, #24]
1a0028f6:	b11b      	cbz	r3, 1a002900 <__sinit+0x14>
1a0028f8:	e8bd 4010 	ldmia.w	sp!, {r4, lr}
1a0028fc:	f7ff bff0 	b.w	1a0028e0 <__sinit_lock_release>
1a002900:	e9c4 3312 	strd	r3, r3, [r4, #72]	; 0x48
1a002904:	6523      	str	r3, [r4, #80]	; 0x50
1a002906:	4b13      	ldr	r3, [pc, #76]	; (1a002954 <__sinit+0x68>)
1a002908:	4a13      	ldr	r2, [pc, #76]	; (1a002958 <__sinit+0x6c>)
1a00290a:	681b      	ldr	r3, [r3, #0]
1a00290c:	62a2      	str	r2, [r4, #40]	; 0x28
1a00290e:	42a3      	cmp	r3, r4
1a002910:	bf04      	itt	eq
1a002912:	2301      	moveq	r3, #1
1a002914:	61a3      	streq	r3, [r4, #24]
1a002916:	4620      	mov	r0, r4
1a002918:	f000 f820 	bl	1a00295c <__sfp>
1a00291c:	6060      	str	r0, [r4, #4]
1a00291e:	4620      	mov	r0, r4
1a002920:	f000 f81c 	bl	1a00295c <__sfp>
1a002924:	60a0      	str	r0, [r4, #8]
1a002926:	4620      	mov	r0, r4
1a002928:	f000 f818 	bl	1a00295c <__sfp>
1a00292c:	2200      	movs	r2, #0
1a00292e:	60e0      	str	r0, [r4, #12]
1a002930:	2104      	movs	r1, #4
1a002932:	6860      	ldr	r0, [r4, #4]
1a002934:	f7ff ff82 	bl	1a00283c <std>
1a002938:	2201      	movs	r2, #1
1a00293a:	2109      	movs	r1, #9
1a00293c:	68a0      	ldr	r0, [r4, #8]
1a00293e:	f7ff ff7d 	bl	1a00283c <std>
1a002942:	2202      	movs	r2, #2
1a002944:	2112      	movs	r1, #18
1a002946:	68e0      	ldr	r0, [r4, #12]
1a002948:	f7ff ff78 	bl	1a00283c <std>
1a00294c:	2301      	movs	r3, #1
1a00294e:	61a3      	str	r3, [r4, #24]
1a002950:	e7d2      	b.n	1a0028f8 <__sinit+0xc>
1a002952:	bf00      	nop
1a002954:	1a003484 	.word	0x1a003484
1a002958:	1a002885 	.word	0x1a002885

1a00295c <__sfp>:
1a00295c:	b5f8      	push	{r3, r4, r5, r6, r7, lr}
1a00295e:	4607      	mov	r7, r0
1a002960:	f7ff ffac 	bl	1a0028bc <__sfp_lock_acquire>
1a002964:	4b1e      	ldr	r3, [pc, #120]	; (1a0029e0 <__sfp+0x84>)
1a002966:	681e      	ldr	r6, [r3, #0]
1a002968:	69b3      	ldr	r3, [r6, #24]
1a00296a:	b913      	cbnz	r3, 1a002972 <__sfp+0x16>
1a00296c:	4630      	mov	r0, r6
1a00296e:	f7ff ffbd 	bl	1a0028ec <__sinit>
1a002972:	3648      	adds	r6, #72	; 0x48
1a002974:	e9d6 3401 	ldrd	r3, r4, [r6, #4]
1a002978:	3b01      	subs	r3, #1
1a00297a:	d503      	bpl.n	1a002984 <__sfp+0x28>
1a00297c:	6833      	ldr	r3, [r6, #0]
1a00297e:	b30b      	cbz	r3, 1a0029c4 <__sfp+0x68>
1a002980:	6836      	ldr	r6, [r6, #0]
1a002982:	e7f7      	b.n	1a002974 <__sfp+0x18>
1a002984:	f9b4 500c 	ldrsh.w	r5, [r4, #12]
1a002988:	b9d5      	cbnz	r5, 1a0029c0 <__sfp+0x64>
1a00298a:	4b16      	ldr	r3, [pc, #88]	; (1a0029e4 <__sfp+0x88>)
1a00298c:	60e3      	str	r3, [r4, #12]
1a00298e:	f104 0058 	add.w	r0, r4, #88	; 0x58
1a002992:	6665      	str	r5, [r4, #100]	; 0x64
1a002994:	f000 f86a 	bl	1a002a6c <__retarget_lock_init_recursive>
1a002998:	f7ff ff96 	bl	1a0028c8 <__sfp_lock_release>
1a00299c:	6025      	str	r5, [r4, #0]
1a00299e:	e9c4 5501 	strd	r5, r5, [r4, #4]
1a0029a2:	e9c4 5504 	strd	r5, r5, [r4, #16]
1a0029a6:	61a5      	str	r5, [r4, #24]
1a0029a8:	2208      	movs	r2, #8
1a0029aa:	4629      	mov	r1, r5
1a0029ac:	f104 005c 	add.w	r0, r4, #92	; 0x5c
1a0029b0:	f000 f85f 	bl	1a002a72 <memset>
1a0029b4:	e9c4 550d 	strd	r5, r5, [r4, #52]	; 0x34
1a0029b8:	e9c4 5512 	strd	r5, r5, [r4, #72]	; 0x48
1a0029bc:	4620      	mov	r0, r4
1a0029be:	bdf8      	pop	{r3, r4, r5, r6, r7, pc}
1a0029c0:	3468      	adds	r4, #104	; 0x68
1a0029c2:	e7d9      	b.n	1a002978 <__sfp+0x1c>
1a0029c4:	2104      	movs	r1, #4
1a0029c6:	4638      	mov	r0, r7
1a0029c8:	f7ff ff62 	bl	1a002890 <__sfmoreglue>
1a0029cc:	4604      	mov	r4, r0
1a0029ce:	6030      	str	r0, [r6, #0]
1a0029d0:	2800      	cmp	r0, #0
1a0029d2:	d1d5      	bne.n	1a002980 <__sfp+0x24>
1a0029d4:	f7ff ff78 	bl	1a0028c8 <__sfp_lock_release>
1a0029d8:	230c      	movs	r3, #12
1a0029da:	603b      	str	r3, [r7, #0]
1a0029dc:	e7ee      	b.n	1a0029bc <__sfp+0x60>
1a0029de:	bf00      	nop
1a0029e0:	1a003484 	.word	0x1a003484
1a0029e4:	ffff0001 	.word	0xffff0001

1a0029e8 <_fwalk_reent>:
1a0029e8:	e92d 43f8 	stmdb	sp!, {r3, r4, r5, r6, r7, r8, r9, lr}
1a0029ec:	4680      	mov	r8, r0
1a0029ee:	4689      	mov	r9, r1
1a0029f0:	f100 0448 	add.w	r4, r0, #72	; 0x48
1a0029f4:	2600      	movs	r6, #0
1a0029f6:	b914      	cbnz	r4, 1a0029fe <_fwalk_reent+0x16>
1a0029f8:	4630      	mov	r0, r6
1a0029fa:	e8bd 83f8 	ldmia.w	sp!, {r3, r4, r5, r6, r7, r8, r9, pc}
1a0029fe:	e9d4 7501 	ldrd	r7, r5, [r4, #4]
1a002a02:	3f01      	subs	r7, #1
1a002a04:	d501      	bpl.n	1a002a0a <_fwalk_reent+0x22>
1a002a06:	6824      	ldr	r4, [r4, #0]
1a002a08:	e7f5      	b.n	1a0029f6 <_fwalk_reent+0xe>
1a002a0a:	89ab      	ldrh	r3, [r5, #12]
1a002a0c:	2b01      	cmp	r3, #1
1a002a0e:	d907      	bls.n	1a002a20 <_fwalk_reent+0x38>
1a002a10:	f9b5 300e 	ldrsh.w	r3, [r5, #14]
1a002a14:	3301      	adds	r3, #1
1a002a16:	d003      	beq.n	1a002a20 <_fwalk_reent+0x38>
1a002a18:	4629      	mov	r1, r5
1a002a1a:	4640      	mov	r0, r8
1a002a1c:	47c8      	blx	r9
1a002a1e:	4306      	orrs	r6, r0
1a002a20:	3568      	adds	r5, #104	; 0x68
1a002a22:	e7ee      	b.n	1a002a02 <_fwalk_reent+0x1a>

1a002a24 <__libc_init_array>:
1a002a24:	b570      	push	{r4, r5, r6, lr}
1a002a26:	4d0d      	ldr	r5, [pc, #52]	; (1a002a5c <__libc_init_array+0x38>)
1a002a28:	4c0d      	ldr	r4, [pc, #52]	; (1a002a60 <__libc_init_array+0x3c>)
1a002a2a:	1b64      	subs	r4, r4, r5
1a002a2c:	10a4      	asrs	r4, r4, #2
1a002a2e:	2600      	movs	r6, #0
1a002a30:	42a6      	cmp	r6, r4
1a002a32:	d109      	bne.n	1a002a48 <__libc_init_array+0x24>
1a002a34:	4d0b      	ldr	r5, [pc, #44]	; (1a002a64 <__libc_init_array+0x40>)
1a002a36:	4c0c      	ldr	r4, [pc, #48]	; (1a002a68 <__libc_init_array+0x44>)
1a002a38:	f7fd fe47 	bl	1a0006ca <_init>
1a002a3c:	1b64      	subs	r4, r4, r5
1a002a3e:	10a4      	asrs	r4, r4, #2
1a002a40:	2600      	movs	r6, #0
1a002a42:	42a6      	cmp	r6, r4
1a002a44:	d105      	bne.n	1a002a52 <__libc_init_array+0x2e>
1a002a46:	bd70      	pop	{r4, r5, r6, pc}
1a002a48:	f855 3b04 	ldr.w	r3, [r5], #4
1a002a4c:	4798      	blx	r3
1a002a4e:	3601      	adds	r6, #1
1a002a50:	e7ee      	b.n	1a002a30 <__libc_init_array+0xc>
1a002a52:	f855 3b04 	ldr.w	r3, [r5], #4
1a002a56:	4798      	blx	r3
1a002a58:	3601      	adds	r6, #1
1a002a5a:	e7f2      	b.n	1a002a42 <__libc_init_array+0x1e>
1a002a5c:	1a003488 	.word	0x1a003488
1a002a60:	1a003488 	.word	0x1a003488
1a002a64:	1a003488 	.word	0x1a003488
1a002a68:	1a00348c 	.word	0x1a00348c

1a002a6c <__retarget_lock_init_recursive>:
1a002a6c:	4770      	bx	lr

1a002a6e <__retarget_lock_acquire_recursive>:
1a002a6e:	4770      	bx	lr

1a002a70 <__retarget_lock_release_recursive>:
1a002a70:	4770      	bx	lr

1a002a72 <memset>:
1a002a72:	4402      	add	r2, r0
1a002a74:	4603      	mov	r3, r0
1a002a76:	4293      	cmp	r3, r2
1a002a78:	d100      	bne.n	1a002a7c <memset+0xa>
1a002a7a:	4770      	bx	lr
1a002a7c:	f803 1b01 	strb.w	r1, [r3], #1
1a002a80:	e7f9      	b.n	1a002a76 <memset+0x4>
1a002a82:	Address 0x1a002a82 is out of bounds.


1a002a84 <_free_r>:
1a002a84:	b538      	push	{r3, r4, r5, lr}
1a002a86:	4605      	mov	r5, r0
1a002a88:	2900      	cmp	r1, #0
1a002a8a:	d045      	beq.n	1a002b18 <_free_r+0x94>
1a002a8c:	f851 3c04 	ldr.w	r3, [r1, #-4]
1a002a90:	1f0c      	subs	r4, r1, #4
1a002a92:	2b00      	cmp	r3, #0
1a002a94:	bfb8      	it	lt
1a002a96:	18e4      	addlt	r4, r4, r3
1a002a98:	f000 fa7a 	bl	1a002f90 <__malloc_lock>
1a002a9c:	4a1f      	ldr	r2, [pc, #124]	; (1a002b1c <_free_r+0x98>)
1a002a9e:	6813      	ldr	r3, [r2, #0]
1a002aa0:	4610      	mov	r0, r2
1a002aa2:	b933      	cbnz	r3, 1a002ab2 <_free_r+0x2e>
1a002aa4:	6063      	str	r3, [r4, #4]
1a002aa6:	6014      	str	r4, [r2, #0]
1a002aa8:	4628      	mov	r0, r5
1a002aaa:	e8bd 4038 	ldmia.w	sp!, {r3, r4, r5, lr}
1a002aae:	f000 ba75 	b.w	1a002f9c <__malloc_unlock>
1a002ab2:	42a3      	cmp	r3, r4
1a002ab4:	d90c      	bls.n	1a002ad0 <_free_r+0x4c>
1a002ab6:	6821      	ldr	r1, [r4, #0]
1a002ab8:	1862      	adds	r2, r4, r1
1a002aba:	4293      	cmp	r3, r2
1a002abc:	bf04      	itt	eq
1a002abe:	681a      	ldreq	r2, [r3, #0]
1a002ac0:	685b      	ldreq	r3, [r3, #4]
1a002ac2:	6063      	str	r3, [r4, #4]
1a002ac4:	bf04      	itt	eq
1a002ac6:	1852      	addeq	r2, r2, r1
1a002ac8:	6022      	streq	r2, [r4, #0]
1a002aca:	6004      	str	r4, [r0, #0]
1a002acc:	e7ec      	b.n	1a002aa8 <_free_r+0x24>
1a002ace:	4613      	mov	r3, r2
1a002ad0:	685a      	ldr	r2, [r3, #4]
1a002ad2:	b10a      	cbz	r2, 1a002ad8 <_free_r+0x54>
1a002ad4:	42a2      	cmp	r2, r4
1a002ad6:	d9fa      	bls.n	1a002ace <_free_r+0x4a>
1a002ad8:	6819      	ldr	r1, [r3, #0]
1a002ada:	1858      	adds	r0, r3, r1
1a002adc:	42a0      	cmp	r0, r4
1a002ade:	d10b      	bne.n	1a002af8 <_free_r+0x74>
1a002ae0:	6820      	ldr	r0, [r4, #0]
1a002ae2:	4401      	add	r1, r0
1a002ae4:	1858      	adds	r0, r3, r1
1a002ae6:	4282      	cmp	r2, r0
1a002ae8:	6019      	str	r1, [r3, #0]
1a002aea:	d1dd      	bne.n	1a002aa8 <_free_r+0x24>
1a002aec:	6810      	ldr	r0, [r2, #0]
1a002aee:	6852      	ldr	r2, [r2, #4]
1a002af0:	605a      	str	r2, [r3, #4]
1a002af2:	4401      	add	r1, r0
1a002af4:	6019      	str	r1, [r3, #0]
1a002af6:	e7d7      	b.n	1a002aa8 <_free_r+0x24>
1a002af8:	d902      	bls.n	1a002b00 <_free_r+0x7c>
1a002afa:	230c      	movs	r3, #12
1a002afc:	602b      	str	r3, [r5, #0]
1a002afe:	e7d3      	b.n	1a002aa8 <_free_r+0x24>
1a002b00:	6820      	ldr	r0, [r4, #0]
1a002b02:	1821      	adds	r1, r4, r0
1a002b04:	428a      	cmp	r2, r1
1a002b06:	bf04      	itt	eq
1a002b08:	6811      	ldreq	r1, [r2, #0]
1a002b0a:	6852      	ldreq	r2, [r2, #4]
1a002b0c:	6062      	str	r2, [r4, #4]
1a002b0e:	bf04      	itt	eq
1a002b10:	1809      	addeq	r1, r1, r0
1a002b12:	6021      	streq	r1, [r4, #0]
1a002b14:	605c      	str	r4, [r3, #4]
1a002b16:	e7c7      	b.n	1a002aa8 <_free_r+0x24>
1a002b18:	bd38      	pop	{r3, r4, r5, pc}
1a002b1a:	bf00      	nop
1a002b1c:	10000170 	.word	0x10000170

1a002b20 <_malloc_r>:
1a002b20:	b5f8      	push	{r3, r4, r5, r6, r7, lr}
1a002b22:	1ccd      	adds	r5, r1, #3
1a002b24:	f025 0503 	bic.w	r5, r5, #3
1a002b28:	3508      	adds	r5, #8
1a002b2a:	2d0c      	cmp	r5, #12
1a002b2c:	bf38      	it	cc
1a002b2e:	250c      	movcc	r5, #12
1a002b30:	2d00      	cmp	r5, #0
1a002b32:	4606      	mov	r6, r0
1a002b34:	db01      	blt.n	1a002b3a <_malloc_r+0x1a>
1a002b36:	42a9      	cmp	r1, r5
1a002b38:	d903      	bls.n	1a002b42 <_malloc_r+0x22>
1a002b3a:	230c      	movs	r3, #12
1a002b3c:	6033      	str	r3, [r6, #0]
1a002b3e:	2000      	movs	r0, #0
1a002b40:	bdf8      	pop	{r3, r4, r5, r6, r7, pc}
1a002b42:	f000 fa25 	bl	1a002f90 <__malloc_lock>
1a002b46:	4921      	ldr	r1, [pc, #132]	; (1a002bcc <_malloc_r+0xac>)
1a002b48:	680a      	ldr	r2, [r1, #0]
1a002b4a:	4614      	mov	r4, r2
1a002b4c:	b99c      	cbnz	r4, 1a002b76 <_malloc_r+0x56>
1a002b4e:	4f20      	ldr	r7, [pc, #128]	; (1a002bd0 <_malloc_r+0xb0>)
1a002b50:	683b      	ldr	r3, [r7, #0]
1a002b52:	b923      	cbnz	r3, 1a002b5e <_malloc_r+0x3e>
1a002b54:	4621      	mov	r1, r4
1a002b56:	4630      	mov	r0, r6
1a002b58:	f7fd fe0c 	bl	1a000774 <_sbrk_r>
1a002b5c:	6038      	str	r0, [r7, #0]
1a002b5e:	4629      	mov	r1, r5
1a002b60:	4630      	mov	r0, r6
1a002b62:	f7fd fe07 	bl	1a000774 <_sbrk_r>
1a002b66:	1c43      	adds	r3, r0, #1
1a002b68:	d123      	bne.n	1a002bb2 <_malloc_r+0x92>
1a002b6a:	230c      	movs	r3, #12
1a002b6c:	6033      	str	r3, [r6, #0]
1a002b6e:	4630      	mov	r0, r6
1a002b70:	f000 fa14 	bl	1a002f9c <__malloc_unlock>
1a002b74:	e7e3      	b.n	1a002b3e <_malloc_r+0x1e>
1a002b76:	6823      	ldr	r3, [r4, #0]
1a002b78:	1b5b      	subs	r3, r3, r5
1a002b7a:	d417      	bmi.n	1a002bac <_malloc_r+0x8c>
1a002b7c:	2b0b      	cmp	r3, #11
1a002b7e:	d903      	bls.n	1a002b88 <_malloc_r+0x68>
1a002b80:	6023      	str	r3, [r4, #0]
1a002b82:	441c      	add	r4, r3
1a002b84:	6025      	str	r5, [r4, #0]
1a002b86:	e004      	b.n	1a002b92 <_malloc_r+0x72>
1a002b88:	6863      	ldr	r3, [r4, #4]
1a002b8a:	42a2      	cmp	r2, r4
1a002b8c:	bf0c      	ite	eq
1a002b8e:	600b      	streq	r3, [r1, #0]
1a002b90:	6053      	strne	r3, [r2, #4]
1a002b92:	4630      	mov	r0, r6
1a002b94:	f000 fa02 	bl	1a002f9c <__malloc_unlock>
1a002b98:	f104 000b 	add.w	r0, r4, #11
1a002b9c:	1d23      	adds	r3, r4, #4
1a002b9e:	f020 0007 	bic.w	r0, r0, #7
1a002ba2:	1ac2      	subs	r2, r0, r3
1a002ba4:	d0cc      	beq.n	1a002b40 <_malloc_r+0x20>
1a002ba6:	1a1b      	subs	r3, r3, r0
1a002ba8:	50a3      	str	r3, [r4, r2]
1a002baa:	e7c9      	b.n	1a002b40 <_malloc_r+0x20>
1a002bac:	4622      	mov	r2, r4
1a002bae:	6864      	ldr	r4, [r4, #4]
1a002bb0:	e7cc      	b.n	1a002b4c <_malloc_r+0x2c>
1a002bb2:	1cc4      	adds	r4, r0, #3
1a002bb4:	f024 0403 	bic.w	r4, r4, #3
1a002bb8:	42a0      	cmp	r0, r4
1a002bba:	d0e3      	beq.n	1a002b84 <_malloc_r+0x64>
1a002bbc:	1a21      	subs	r1, r4, r0
1a002bbe:	4630      	mov	r0, r6
1a002bc0:	f7fd fdd8 	bl	1a000774 <_sbrk_r>
1a002bc4:	3001      	adds	r0, #1
1a002bc6:	d1dd      	bne.n	1a002b84 <_malloc_r+0x64>
1a002bc8:	e7cf      	b.n	1a002b6a <_malloc_r+0x4a>
1a002bca:	bf00      	nop
1a002bcc:	10000170 	.word	0x10000170
1a002bd0:	10000174 	.word	0x10000174

1a002bd4 <_puts_r>:
1a002bd4:	b570      	push	{r4, r5, r6, lr}
1a002bd6:	460e      	mov	r6, r1
1a002bd8:	4605      	mov	r5, r0
1a002bda:	b118      	cbz	r0, 1a002be4 <_puts_r+0x10>
1a002bdc:	6983      	ldr	r3, [r0, #24]
1a002bde:	b90b      	cbnz	r3, 1a002be4 <_puts_r+0x10>
1a002be0:	f7ff fe84 	bl	1a0028ec <__sinit>
1a002be4:	69ab      	ldr	r3, [r5, #24]
1a002be6:	68ac      	ldr	r4, [r5, #8]
1a002be8:	b913      	cbnz	r3, 1a002bf0 <_puts_r+0x1c>
1a002bea:	4628      	mov	r0, r5
1a002bec:	f7ff fe7e 	bl	1a0028ec <__sinit>
1a002bf0:	4b2c      	ldr	r3, [pc, #176]	; (1a002ca4 <_puts_r+0xd0>)
1a002bf2:	429c      	cmp	r4, r3
1a002bf4:	d120      	bne.n	1a002c38 <_puts_r+0x64>
1a002bf6:	686c      	ldr	r4, [r5, #4]
1a002bf8:	6e63      	ldr	r3, [r4, #100]	; 0x64
1a002bfa:	07db      	lsls	r3, r3, #31
1a002bfc:	d405      	bmi.n	1a002c0a <_puts_r+0x36>
1a002bfe:	89a3      	ldrh	r3, [r4, #12]
1a002c00:	0598      	lsls	r0, r3, #22
1a002c02:	d402      	bmi.n	1a002c0a <_puts_r+0x36>
1a002c04:	6da0      	ldr	r0, [r4, #88]	; 0x58
1a002c06:	f7ff ff32 	bl	1a002a6e <__retarget_lock_acquire_recursive>
1a002c0a:	89a3      	ldrh	r3, [r4, #12]
1a002c0c:	0719      	lsls	r1, r3, #28
1a002c0e:	d51d      	bpl.n	1a002c4c <_puts_r+0x78>
1a002c10:	6923      	ldr	r3, [r4, #16]
1a002c12:	b1db      	cbz	r3, 1a002c4c <_puts_r+0x78>
1a002c14:	3e01      	subs	r6, #1
1a002c16:	68a3      	ldr	r3, [r4, #8]
1a002c18:	f816 1f01 	ldrb.w	r1, [r6, #1]!
1a002c1c:	3b01      	subs	r3, #1
1a002c1e:	60a3      	str	r3, [r4, #8]
1a002c20:	bb39      	cbnz	r1, 1a002c72 <_puts_r+0x9e>
1a002c22:	2b00      	cmp	r3, #0
1a002c24:	da38      	bge.n	1a002c98 <_puts_r+0xc4>
1a002c26:	4622      	mov	r2, r4
1a002c28:	210a      	movs	r1, #10
1a002c2a:	4628      	mov	r0, r5
1a002c2c:	f000 f88c 	bl	1a002d48 <__swbuf_r>
1a002c30:	3001      	adds	r0, #1
1a002c32:	d011      	beq.n	1a002c58 <_puts_r+0x84>
1a002c34:	250a      	movs	r5, #10
1a002c36:	e011      	b.n	1a002c5c <_puts_r+0x88>
1a002c38:	4b1b      	ldr	r3, [pc, #108]	; (1a002ca8 <_puts_r+0xd4>)
1a002c3a:	429c      	cmp	r4, r3
1a002c3c:	d101      	bne.n	1a002c42 <_puts_r+0x6e>
1a002c3e:	68ac      	ldr	r4, [r5, #8]
1a002c40:	e7da      	b.n	1a002bf8 <_puts_r+0x24>
1a002c42:	4b1a      	ldr	r3, [pc, #104]	; (1a002cac <_puts_r+0xd8>)
1a002c44:	429c      	cmp	r4, r3
1a002c46:	bf08      	it	eq
1a002c48:	68ec      	ldreq	r4, [r5, #12]
1a002c4a:	e7d5      	b.n	1a002bf8 <_puts_r+0x24>
1a002c4c:	4621      	mov	r1, r4
1a002c4e:	4628      	mov	r0, r5
1a002c50:	f000 f8cc 	bl	1a002dec <__swsetup_r>
1a002c54:	2800      	cmp	r0, #0
1a002c56:	d0dd      	beq.n	1a002c14 <_puts_r+0x40>
1a002c58:	f04f 35ff 	mov.w	r5, #4294967295
1a002c5c:	6e63      	ldr	r3, [r4, #100]	; 0x64
1a002c5e:	07da      	lsls	r2, r3, #31
1a002c60:	d405      	bmi.n	1a002c6e <_puts_r+0x9a>
1a002c62:	89a3      	ldrh	r3, [r4, #12]
1a002c64:	059b      	lsls	r3, r3, #22
1a002c66:	d402      	bmi.n	1a002c6e <_puts_r+0x9a>
1a002c68:	6da0      	ldr	r0, [r4, #88]	; 0x58
1a002c6a:	f7ff ff01 	bl	1a002a70 <__retarget_lock_release_recursive>
1a002c6e:	4628      	mov	r0, r5
1a002c70:	bd70      	pop	{r4, r5, r6, pc}
1a002c72:	2b00      	cmp	r3, #0
1a002c74:	da04      	bge.n	1a002c80 <_puts_r+0xac>
1a002c76:	69a2      	ldr	r2, [r4, #24]
1a002c78:	429a      	cmp	r2, r3
1a002c7a:	dc06      	bgt.n	1a002c8a <_puts_r+0xb6>
1a002c7c:	290a      	cmp	r1, #10
1a002c7e:	d004      	beq.n	1a002c8a <_puts_r+0xb6>
1a002c80:	6823      	ldr	r3, [r4, #0]
1a002c82:	1c5a      	adds	r2, r3, #1
1a002c84:	6022      	str	r2, [r4, #0]
1a002c86:	7019      	strb	r1, [r3, #0]
1a002c88:	e7c5      	b.n	1a002c16 <_puts_r+0x42>
1a002c8a:	4622      	mov	r2, r4
1a002c8c:	4628      	mov	r0, r5
1a002c8e:	f000 f85b 	bl	1a002d48 <__swbuf_r>
1a002c92:	3001      	adds	r0, #1
1a002c94:	d1bf      	bne.n	1a002c16 <_puts_r+0x42>
1a002c96:	e7df      	b.n	1a002c58 <_puts_r+0x84>
1a002c98:	6823      	ldr	r3, [r4, #0]
1a002c9a:	250a      	movs	r5, #10
1a002c9c:	1c5a      	adds	r2, r3, #1
1a002c9e:	6022      	str	r2, [r4, #0]
1a002ca0:	701d      	strb	r5, [r3, #0]
1a002ca2:	e7db      	b.n	1a002c5c <_puts_r+0x88>
1a002ca4:	1a003444 	.word	0x1a003444
1a002ca8:	1a003464 	.word	0x1a003464
1a002cac:	1a003424 	.word	0x1a003424

1a002cb0 <puts>:
1a002cb0:	4b02      	ldr	r3, [pc, #8]	; (1a002cbc <puts+0xc>)
1a002cb2:	4601      	mov	r1, r0
1a002cb4:	6818      	ldr	r0, [r3, #0]
1a002cb6:	f7ff bf8d 	b.w	1a002bd4 <_puts_r>
1a002cba:	bf00      	nop
1a002cbc:	10000090 	.word	0x10000090

1a002cc0 <__sread>:
1a002cc0:	b510      	push	{r4, lr}
1a002cc2:	460c      	mov	r4, r1
1a002cc4:	f9b1 100e 	ldrsh.w	r1, [r1, #14]
1a002cc8:	f7fd fd18 	bl	1a0006fc <_read_r>
1a002ccc:	2800      	cmp	r0, #0
1a002cce:	bfab      	itete	ge
1a002cd0:	6d63      	ldrge	r3, [r4, #84]	; 0x54
1a002cd2:	89a3      	ldrhlt	r3, [r4, #12]
1a002cd4:	181b      	addge	r3, r3, r0
1a002cd6:	f423 5380 	biclt.w	r3, r3, #4096	; 0x1000
1a002cda:	bfac      	ite	ge
1a002cdc:	6563      	strge	r3, [r4, #84]	; 0x54
1a002cde:	81a3      	strhlt	r3, [r4, #12]
1a002ce0:	bd10      	pop	{r4, pc}

1a002ce2 <__swrite>:
1a002ce2:	e92d 41f0 	stmdb	sp!, {r4, r5, r6, r7, r8, lr}
1a002ce6:	461f      	mov	r7, r3
1a002ce8:	898b      	ldrh	r3, [r1, #12]
1a002cea:	05db      	lsls	r3, r3, #23
1a002cec:	4605      	mov	r5, r0
1a002cee:	460c      	mov	r4, r1
1a002cf0:	4616      	mov	r6, r2
1a002cf2:	d505      	bpl.n	1a002d00 <__swrite+0x1e>
1a002cf4:	2302      	movs	r3, #2
1a002cf6:	2200      	movs	r2, #0
1a002cf8:	f9b1 100e 	ldrsh.w	r1, [r1, #14]
1a002cfc:	f7fd fcf9 	bl	1a0006f2 <_lseek_r>
1a002d00:	89a3      	ldrh	r3, [r4, #12]
1a002d02:	f9b4 100e 	ldrsh.w	r1, [r4, #14]
1a002d06:	f423 5380 	bic.w	r3, r3, #4096	; 0x1000
1a002d0a:	81a3      	strh	r3, [r4, #12]
1a002d0c:	4632      	mov	r2, r6
1a002d0e:	463b      	mov	r3, r7
1a002d10:	4628      	mov	r0, r5
1a002d12:	e8bd 41f0 	ldmia.w	sp!, {r4, r5, r6, r7, r8, lr}
1a002d16:	f7fd bd18 	b.w	1a00074a <_write_r>

1a002d1a <__sseek>:
1a002d1a:	b510      	push	{r4, lr}
1a002d1c:	460c      	mov	r4, r1
1a002d1e:	f9b1 100e 	ldrsh.w	r1, [r1, #14]
1a002d22:	f7fd fce6 	bl	1a0006f2 <_lseek_r>
1a002d26:	1c43      	adds	r3, r0, #1
1a002d28:	89a3      	ldrh	r3, [r4, #12]
1a002d2a:	bf15      	itete	ne
1a002d2c:	6560      	strne	r0, [r4, #84]	; 0x54
1a002d2e:	f423 5380 	biceq.w	r3, r3, #4096	; 0x1000
1a002d32:	f443 5380 	orrne.w	r3, r3, #4096	; 0x1000
1a002d36:	81a3      	strheq	r3, [r4, #12]
1a002d38:	bf18      	it	ne
1a002d3a:	81a3      	strhne	r3, [r4, #12]
1a002d3c:	bd10      	pop	{r4, pc}

1a002d3e <__sclose>:
1a002d3e:	f9b1 100e 	ldrsh.w	r1, [r1, #14]
1a002d42:	f7fd bcc3 	b.w	1a0006cc <_close_r>
1a002d46:	Address 0x1a002d46 is out of bounds.


1a002d48 <__swbuf_r>:
1a002d48:	b5f8      	push	{r3, r4, r5, r6, r7, lr}
1a002d4a:	460e      	mov	r6, r1
1a002d4c:	4614      	mov	r4, r2
1a002d4e:	4605      	mov	r5, r0
1a002d50:	b118      	cbz	r0, 1a002d5a <__swbuf_r+0x12>
1a002d52:	6983      	ldr	r3, [r0, #24]
1a002d54:	b90b      	cbnz	r3, 1a002d5a <__swbuf_r+0x12>
1a002d56:	f7ff fdc9 	bl	1a0028ec <__sinit>
1a002d5a:	4b21      	ldr	r3, [pc, #132]	; (1a002de0 <__swbuf_r+0x98>)
1a002d5c:	429c      	cmp	r4, r3
1a002d5e:	d12b      	bne.n	1a002db8 <__swbuf_r+0x70>
1a002d60:	686c      	ldr	r4, [r5, #4]
1a002d62:	69a3      	ldr	r3, [r4, #24]
1a002d64:	60a3      	str	r3, [r4, #8]
1a002d66:	89a3      	ldrh	r3, [r4, #12]
1a002d68:	071a      	lsls	r2, r3, #28
1a002d6a:	d52f      	bpl.n	1a002dcc <__swbuf_r+0x84>
1a002d6c:	6923      	ldr	r3, [r4, #16]
1a002d6e:	b36b      	cbz	r3, 1a002dcc <__swbuf_r+0x84>
1a002d70:	6923      	ldr	r3, [r4, #16]
1a002d72:	6820      	ldr	r0, [r4, #0]
1a002d74:	1ac0      	subs	r0, r0, r3
1a002d76:	6963      	ldr	r3, [r4, #20]
1a002d78:	b2f6      	uxtb	r6, r6
1a002d7a:	4283      	cmp	r3, r0
1a002d7c:	4637      	mov	r7, r6
1a002d7e:	dc04      	bgt.n	1a002d8a <__swbuf_r+0x42>
1a002d80:	4621      	mov	r1, r4
1a002d82:	4628      	mov	r0, r5
1a002d84:	f7ff fd1e 	bl	1a0027c4 <_fflush_r>
1a002d88:	bb30      	cbnz	r0, 1a002dd8 <__swbuf_r+0x90>
1a002d8a:	68a3      	ldr	r3, [r4, #8]
1a002d8c:	3b01      	subs	r3, #1
1a002d8e:	60a3      	str	r3, [r4, #8]
1a002d90:	6823      	ldr	r3, [r4, #0]
1a002d92:	1c5a      	adds	r2, r3, #1
1a002d94:	6022      	str	r2, [r4, #0]
1a002d96:	701e      	strb	r6, [r3, #0]
1a002d98:	6963      	ldr	r3, [r4, #20]
1a002d9a:	3001      	adds	r0, #1
1a002d9c:	4283      	cmp	r3, r0
1a002d9e:	d004      	beq.n	1a002daa <__swbuf_r+0x62>
1a002da0:	89a3      	ldrh	r3, [r4, #12]
1a002da2:	07db      	lsls	r3, r3, #31
1a002da4:	d506      	bpl.n	1a002db4 <__swbuf_r+0x6c>
1a002da6:	2e0a      	cmp	r6, #10
1a002da8:	d104      	bne.n	1a002db4 <__swbuf_r+0x6c>
1a002daa:	4621      	mov	r1, r4
1a002dac:	4628      	mov	r0, r5
1a002dae:	f7ff fd09 	bl	1a0027c4 <_fflush_r>
1a002db2:	b988      	cbnz	r0, 1a002dd8 <__swbuf_r+0x90>
1a002db4:	4638      	mov	r0, r7
1a002db6:	bdf8      	pop	{r3, r4, r5, r6, r7, pc}
1a002db8:	4b0a      	ldr	r3, [pc, #40]	; (1a002de4 <__swbuf_r+0x9c>)
1a002dba:	429c      	cmp	r4, r3
1a002dbc:	d101      	bne.n	1a002dc2 <__swbuf_r+0x7a>
1a002dbe:	68ac      	ldr	r4, [r5, #8]
1a002dc0:	e7cf      	b.n	1a002d62 <__swbuf_r+0x1a>
1a002dc2:	4b09      	ldr	r3, [pc, #36]	; (1a002de8 <__swbuf_r+0xa0>)
1a002dc4:	429c      	cmp	r4, r3
1a002dc6:	bf08      	it	eq
1a002dc8:	68ec      	ldreq	r4, [r5, #12]
1a002dca:	e7ca      	b.n	1a002d62 <__swbuf_r+0x1a>
1a002dcc:	4621      	mov	r1, r4
1a002dce:	4628      	mov	r0, r5
1a002dd0:	f000 f80c 	bl	1a002dec <__swsetup_r>
1a002dd4:	2800      	cmp	r0, #0
1a002dd6:	d0cb      	beq.n	1a002d70 <__swbuf_r+0x28>
1a002dd8:	f04f 37ff 	mov.w	r7, #4294967295
1a002ddc:	e7ea      	b.n	1a002db4 <__swbuf_r+0x6c>
1a002dde:	bf00      	nop
1a002de0:	1a003444 	.word	0x1a003444
1a002de4:	1a003464 	.word	0x1a003464
1a002de8:	1a003424 	.word	0x1a003424

1a002dec <__swsetup_r>:
1a002dec:	4b32      	ldr	r3, [pc, #200]	; (1a002eb8 <__swsetup_r+0xcc>)
1a002dee:	b570      	push	{r4, r5, r6, lr}
1a002df0:	681d      	ldr	r5, [r3, #0]
1a002df2:	4606      	mov	r6, r0
1a002df4:	460c      	mov	r4, r1
1a002df6:	b125      	cbz	r5, 1a002e02 <__swsetup_r+0x16>
1a002df8:	69ab      	ldr	r3, [r5, #24]
1a002dfa:	b913      	cbnz	r3, 1a002e02 <__swsetup_r+0x16>
1a002dfc:	4628      	mov	r0, r5
1a002dfe:	f7ff fd75 	bl	1a0028ec <__sinit>
1a002e02:	4b2e      	ldr	r3, [pc, #184]	; (1a002ebc <__swsetup_r+0xd0>)
1a002e04:	429c      	cmp	r4, r3
1a002e06:	d10f      	bne.n	1a002e28 <__swsetup_r+0x3c>
1a002e08:	686c      	ldr	r4, [r5, #4]
1a002e0a:	f9b4 300c 	ldrsh.w	r3, [r4, #12]
1a002e0e:	b29a      	uxth	r2, r3
1a002e10:	0715      	lsls	r5, r2, #28
1a002e12:	d42c      	bmi.n	1a002e6e <__swsetup_r+0x82>
1a002e14:	06d0      	lsls	r0, r2, #27
1a002e16:	d411      	bmi.n	1a002e3c <__swsetup_r+0x50>
1a002e18:	2209      	movs	r2, #9
1a002e1a:	6032      	str	r2, [r6, #0]
1a002e1c:	f043 0340 	orr.w	r3, r3, #64	; 0x40
1a002e20:	81a3      	strh	r3, [r4, #12]
1a002e22:	f04f 30ff 	mov.w	r0, #4294967295
1a002e26:	e03e      	b.n	1a002ea6 <__swsetup_r+0xba>
1a002e28:	4b25      	ldr	r3, [pc, #148]	; (1a002ec0 <__swsetup_r+0xd4>)
1a002e2a:	429c      	cmp	r4, r3
1a002e2c:	d101      	bne.n	1a002e32 <__swsetup_r+0x46>
1a002e2e:	68ac      	ldr	r4, [r5, #8]
1a002e30:	e7eb      	b.n	1a002e0a <__swsetup_r+0x1e>
1a002e32:	4b24      	ldr	r3, [pc, #144]	; (1a002ec4 <__swsetup_r+0xd8>)
1a002e34:	429c      	cmp	r4, r3
1a002e36:	bf08      	it	eq
1a002e38:	68ec      	ldreq	r4, [r5, #12]
1a002e3a:	e7e6      	b.n	1a002e0a <__swsetup_r+0x1e>
1a002e3c:	0751      	lsls	r1, r2, #29
1a002e3e:	d512      	bpl.n	1a002e66 <__swsetup_r+0x7a>
1a002e40:	6b61      	ldr	r1, [r4, #52]	; 0x34
1a002e42:	b141      	cbz	r1, 1a002e56 <__swsetup_r+0x6a>
1a002e44:	f104 0344 	add.w	r3, r4, #68	; 0x44
1a002e48:	4299      	cmp	r1, r3
1a002e4a:	d002      	beq.n	1a002e52 <__swsetup_r+0x66>
1a002e4c:	4630      	mov	r0, r6
1a002e4e:	f7ff fe19 	bl	1a002a84 <_free_r>
1a002e52:	2300      	movs	r3, #0
1a002e54:	6363      	str	r3, [r4, #52]	; 0x34
1a002e56:	89a3      	ldrh	r3, [r4, #12]
1a002e58:	f023 0324 	bic.w	r3, r3, #36	; 0x24
1a002e5c:	81a3      	strh	r3, [r4, #12]
1a002e5e:	2300      	movs	r3, #0
1a002e60:	6063      	str	r3, [r4, #4]
1a002e62:	6923      	ldr	r3, [r4, #16]
1a002e64:	6023      	str	r3, [r4, #0]
1a002e66:	89a3      	ldrh	r3, [r4, #12]
1a002e68:	f043 0308 	orr.w	r3, r3, #8
1a002e6c:	81a3      	strh	r3, [r4, #12]
1a002e6e:	6923      	ldr	r3, [r4, #16]
1a002e70:	b94b      	cbnz	r3, 1a002e86 <__swsetup_r+0x9a>
1a002e72:	89a3      	ldrh	r3, [r4, #12]
1a002e74:	f403 7320 	and.w	r3, r3, #640	; 0x280
1a002e78:	f5b3 7f00 	cmp.w	r3, #512	; 0x200
1a002e7c:	d003      	beq.n	1a002e86 <__swsetup_r+0x9a>
1a002e7e:	4621      	mov	r1, r4
1a002e80:	4630      	mov	r0, r6
1a002e82:	f000 f845 	bl	1a002f10 <__smakebuf_r>
1a002e86:	89a2      	ldrh	r2, [r4, #12]
1a002e88:	f012 0301 	ands.w	r3, r2, #1
1a002e8c:	d00c      	beq.n	1a002ea8 <__swsetup_r+0xbc>
1a002e8e:	2300      	movs	r3, #0
1a002e90:	60a3      	str	r3, [r4, #8]
1a002e92:	6963      	ldr	r3, [r4, #20]
1a002e94:	425b      	negs	r3, r3
1a002e96:	61a3      	str	r3, [r4, #24]
1a002e98:	6923      	ldr	r3, [r4, #16]
1a002e9a:	b953      	cbnz	r3, 1a002eb2 <__swsetup_r+0xc6>
1a002e9c:	f9b4 300c 	ldrsh.w	r3, [r4, #12]
1a002ea0:	f013 0080 	ands.w	r0, r3, #128	; 0x80
1a002ea4:	d1ba      	bne.n	1a002e1c <__swsetup_r+0x30>
1a002ea6:	bd70      	pop	{r4, r5, r6, pc}
1a002ea8:	0792      	lsls	r2, r2, #30
1a002eaa:	bf58      	it	pl
1a002eac:	6963      	ldrpl	r3, [r4, #20]
1a002eae:	60a3      	str	r3, [r4, #8]
1a002eb0:	e7f2      	b.n	1a002e98 <__swsetup_r+0xac>
1a002eb2:	2000      	movs	r0, #0
1a002eb4:	e7f7      	b.n	1a002ea6 <__swsetup_r+0xba>
1a002eb6:	bf00      	nop
1a002eb8:	10000090 	.word	0x10000090
1a002ebc:	1a003444 	.word	0x1a003444
1a002ec0:	1a003464 	.word	0x1a003464
1a002ec4:	1a003424 	.word	0x1a003424

1a002ec8 <__swhatbuf_r>:
1a002ec8:	b570      	push	{r4, r5, r6, lr}
1a002eca:	460e      	mov	r6, r1
1a002ecc:	f9b1 100e 	ldrsh.w	r1, [r1, #14]
1a002ed0:	2900      	cmp	r1, #0
1a002ed2:	b096      	sub	sp, #88	; 0x58
1a002ed4:	4614      	mov	r4, r2
1a002ed6:	461d      	mov	r5, r3
1a002ed8:	da07      	bge.n	1a002eea <__swhatbuf_r+0x22>
1a002eda:	2300      	movs	r3, #0
1a002edc:	602b      	str	r3, [r5, #0]
1a002ede:	89b3      	ldrh	r3, [r6, #12]
1a002ee0:	061a      	lsls	r2, r3, #24
1a002ee2:	d410      	bmi.n	1a002f06 <__swhatbuf_r+0x3e>
1a002ee4:	f44f 6380 	mov.w	r3, #1024	; 0x400
1a002ee8:	e00e      	b.n	1a002f08 <__swhatbuf_r+0x40>
1a002eea:	466a      	mov	r2, sp
1a002eec:	f7fd fbf3 	bl	1a0006d6 <_fstat_r>
1a002ef0:	2800      	cmp	r0, #0
1a002ef2:	dbf2      	blt.n	1a002eda <__swhatbuf_r+0x12>
1a002ef4:	9a01      	ldr	r2, [sp, #4]
1a002ef6:	f402 4270 	and.w	r2, r2, #61440	; 0xf000
1a002efa:	f5a2 5300 	sub.w	r3, r2, #8192	; 0x2000
1a002efe:	425a      	negs	r2, r3
1a002f00:	415a      	adcs	r2, r3
1a002f02:	602a      	str	r2, [r5, #0]
1a002f04:	e7ee      	b.n	1a002ee4 <__swhatbuf_r+0x1c>
1a002f06:	2340      	movs	r3, #64	; 0x40
1a002f08:	2000      	movs	r0, #0
1a002f0a:	6023      	str	r3, [r4, #0]
1a002f0c:	b016      	add	sp, #88	; 0x58
1a002f0e:	bd70      	pop	{r4, r5, r6, pc}

1a002f10 <__smakebuf_r>:
1a002f10:	898b      	ldrh	r3, [r1, #12]
1a002f12:	b573      	push	{r0, r1, r4, r5, r6, lr}
1a002f14:	079d      	lsls	r5, r3, #30
1a002f16:	4606      	mov	r6, r0
1a002f18:	460c      	mov	r4, r1
1a002f1a:	d507      	bpl.n	1a002f2c <__smakebuf_r+0x1c>
1a002f1c:	f104 0347 	add.w	r3, r4, #71	; 0x47
1a002f20:	6023      	str	r3, [r4, #0]
1a002f22:	6123      	str	r3, [r4, #16]
1a002f24:	2301      	movs	r3, #1
1a002f26:	6163      	str	r3, [r4, #20]
1a002f28:	b002      	add	sp, #8
1a002f2a:	bd70      	pop	{r4, r5, r6, pc}
1a002f2c:	ab01      	add	r3, sp, #4
1a002f2e:	466a      	mov	r2, sp
1a002f30:	f7ff ffca 	bl	1a002ec8 <__swhatbuf_r>
1a002f34:	9900      	ldr	r1, [sp, #0]
1a002f36:	4605      	mov	r5, r0
1a002f38:	4630      	mov	r0, r6
1a002f3a:	f7ff fdf1 	bl	1a002b20 <_malloc_r>
1a002f3e:	b948      	cbnz	r0, 1a002f54 <__smakebuf_r+0x44>
1a002f40:	f9b4 300c 	ldrsh.w	r3, [r4, #12]
1a002f44:	059a      	lsls	r2, r3, #22
1a002f46:	d4ef      	bmi.n	1a002f28 <__smakebuf_r+0x18>
1a002f48:	f023 0303 	bic.w	r3, r3, #3
1a002f4c:	f043 0302 	orr.w	r3, r3, #2
1a002f50:	81a3      	strh	r3, [r4, #12]
1a002f52:	e7e3      	b.n	1a002f1c <__smakebuf_r+0xc>
1a002f54:	4b0d      	ldr	r3, [pc, #52]	; (1a002f8c <__smakebuf_r+0x7c>)
1a002f56:	62b3      	str	r3, [r6, #40]	; 0x28
1a002f58:	89a3      	ldrh	r3, [r4, #12]
1a002f5a:	6020      	str	r0, [r4, #0]
1a002f5c:	f043 0380 	orr.w	r3, r3, #128	; 0x80
1a002f60:	81a3      	strh	r3, [r4, #12]
1a002f62:	9b00      	ldr	r3, [sp, #0]
1a002f64:	6163      	str	r3, [r4, #20]
1a002f66:	9b01      	ldr	r3, [sp, #4]
1a002f68:	6120      	str	r0, [r4, #16]
1a002f6a:	b15b      	cbz	r3, 1a002f84 <__smakebuf_r+0x74>
1a002f6c:	f9b4 100e 	ldrsh.w	r1, [r4, #14]
1a002f70:	4630      	mov	r0, r6
1a002f72:	f7fd fbb5 	bl	1a0006e0 <_isatty_r>
1a002f76:	b128      	cbz	r0, 1a002f84 <__smakebuf_r+0x74>
1a002f78:	89a3      	ldrh	r3, [r4, #12]
1a002f7a:	f023 0303 	bic.w	r3, r3, #3
1a002f7e:	f043 0301 	orr.w	r3, r3, #1
1a002f82:	81a3      	strh	r3, [r4, #12]
1a002f84:	89a3      	ldrh	r3, [r4, #12]
1a002f86:	431d      	orrs	r5, r3
1a002f88:	81a5      	strh	r5, [r4, #12]
1a002f8a:	e7cd      	b.n	1a002f28 <__smakebuf_r+0x18>
1a002f8c:	1a002885 	.word	0x1a002885

1a002f90 <__malloc_lock>:
1a002f90:	4801      	ldr	r0, [pc, #4]	; (1a002f98 <__malloc_lock+0x8>)
1a002f92:	f7ff bd6c 	b.w	1a002a6e <__retarget_lock_acquire_recursive>
1a002f96:	bf00      	nop
1a002f98:	10000184 	.word	0x10000184

1a002f9c <__malloc_unlock>:
1a002f9c:	4801      	ldr	r0, [pc, #4]	; (1a002fa4 <__malloc_unlock+0x8>)
1a002f9e:	f7ff bd67 	b.w	1a002a70 <__retarget_lock_release_recursive>
1a002fa2:	bf00      	nop
1a002fa4:	10000184 	.word	0x10000184

1a002fa8 <Gamepad_ReportDescSize>:
1a002fa8:	ffff0048                                H...

1a002fac <Gamepad_ReportDescriptor>:
1a002fac:	05090105 010501a1 31093009 35093209     .........0.1.2.5
1a002fbc:	34093309 7f258115 08750695 01050681     .3.4..%...u.....
1a002fcc:	01153909 00350825 95013b46 81087501     .9..%.5.F;...u..
1a002fdc:	19090502 15062901 95012500 81017506     .....)...%...u..
1a002fec:	75019502 c0018102                       ...u....

1a002ff4 <USB_DeviceDescriptor>:
1a002ff4:	02000112 40000000 00861fc9 02010100     .......@........
1a003004:	ffff0103                                ....

1a003008 <USB_DeviceQualifier>:
1a003008:	0200060a 40000000 ffff0001              .......@....

1a003014 <USB_StringDescriptor>:
1a003014:	04090304 004e0326 00500058 00530020     ....&.N.X.P. .S.
1a003024:	006d0065 00630069 006e006f 00750064     e.m.i.c.o.n.d.u.
1a003034:	00740063 0072006f 03220073 0050004c     c.t.o.r.s.".L.P.
1a003044:	00310043 00780038 00200078 00410047     C.1.8.x.x. .G.A.
1a003054:	0045004d 00410050 00200044 0041031c     M.E.P.A.D. ...A.
1a003064:	00430042 00310044 00330032 00350034     B.C.D.1.2.3.4.5.
1a003074:	00370036 00390038 0048031a 00440049     6.7.8.9...H.I.D.
1a003084:	00470020 004d0041 00500045 00440041      .G.A.M.E.P.A.D.
1a003094:	                                          .

1a003096 <Keyboard_ReportDescSize>:
1a003096:	                                         ?.

1a003098 <Keyboard_ReportDescriptor>:
1a003098:	06090105 070501a1 e729e019 01250015     ..........)...%.
1a0030a8:	08950175 01950281 01810875 01750595     u.......u.....u.
1a0030b8:	01190805 02910529 03750195 06950191     ....).....u.....
1a0030c8:	00150875 07056525 65290019 ffc00081     u...%e....)e....

1a0030d8 <InitClkStates>:
1a0030d8:	01010f01                                ....

1a0030dc <pinmuxing>:
1a0030dc:	00440002 00440102 00440202 00400a02     ..D...D...D...@.
1a0030ec:	00400b02 00400c02 00500001 00500101     ..@...@...P...P.
1a0030fc:	00500201 00500601 00500106 00500406     ..P...P...P...P.
1a00310c:	00500506 00540706 00540806 00500906     ..P...T...T...P.
1a00311c:	00500a06 00500b06 00500c06 00f0040f     ..P...P...P.....
1a00312c:	00d50301 00d50401 00160107 00560207     ..............V.
1a00313c:	00520302 00520402 00520509 00570609     ..R...R...R...W.
1a00314c:	00570206                                ..W.

1a003150 <ExtRateIn>:
1a003150:	00000000                                ....

1a003154 <GpioButtons>:
1a003154:	08000400 09010900                       ........

1a00315c <GpioLeds>:
1a00315c:	01050005 0e000205 0c010b01              ............

1a003168 <GpioPorts>:
1a003168:	03030003 0f050403 05031005 07030603     ................
1a003178:	ffff0802                                ....

1a00317c <OscRateIn>:
1a00317c:	00b71b00                                ....

1a003180 <InitClkStates>:
1a003180:	00010100 00010909 0001090a 01010701     ................
1a003190:	00010902 00010906 0101090c 0001090d     ................
1a0031a0:	0001090e 0001090f 00010910 00010911     ................
1a0031b0:	00010912 00010913 00011114 00011119     ................
1a0031c0:	0001111a 0001111b                       ........

1a0031c8 <usbPLLSetup>:
1a0031c8:	0000601d 06167ffa 00000000 00000000     .`..............
1a0031d8:	1c9c3800 08040201 0f0f0f03 ffff00ff     .8..............

1a0031e8 <periph_to_base>:
1a0031e8:	00050000 0020000a 00090024 00400040     ...... .$...@.@.
1a0031f8:	00600005 000400a6 00c300c0 00e00002     ..`.............
1a003208:	000100e0 01000100 01200003 00060120     .......... . ...
1a003218:	01400140 0142000c 00190142 01620162     @.@...B.B...b.b.
1a003228:	01820013 00120182 01a201a2 01c20011     ................
1a003238:	001001c2 01e201e2 0202000f 000e0202     ................
1a003248:	02220222 0223000d 001c0223              "."...#.#...

1a003254 <UART_BClock>:
1a003254:	01a201c2 01620182                       ......b.

1a00325c <UART_PClock>:
1a00325c:	00820081 00a200a1                       ........

1a003264 <gpioPinsInit>:
1a003264:	02000104 00050701 05010d03 04080100     ................
1a003274:	02020002 02000304 00000403 04070002     ................
1a003284:	030c0300 09050402 05040103 04030208     ................
1a003294:	04020305 06040504 0802000c 03000b06     ................
1a0032a4:	00090607 07060503 060f0504 03030004     ................
1a0032b4:	02000404 00050404 06040502 04060200     ................
1a0032c4:	0c050408 05040a04 0003010e 14010a00     ................
1a0032d4:	010f0000 0d000012 00001101 0010010c     ................
1a0032e4:	07070300 000f0300 01000001 00000000     ................
1a0032f4:	000a0600 08060603 06100504 04030005     ................
1a003304:	03000106 04090400 04010d05 010b0000     ................
1a003314:	0200000f 00000001 00010104 02010800     ................
1a003324:	01090000 09010006 05040002 04010200     ................
1a003334:	02020105 02020504 0e00000a 01000b02     ................
1a003344:	000c020b ffff0c01 00061a80 0000000a     ................

1a003354 <lpcUarts>:
1a003354:	40081000 06020406 00180205 40081000     ...@...........@
1a003364:	09070509 00180706 40082000 00000000     ......... .@....
1a003374:	00190000 400c1000 07060107 001a0602     .......@........
1a003384:	400c1000 01010f01 001a0110 400c2000     ...@......... .@
1a003394:	02020302 001b0204 5f425355 5f444948     ........USB_HID_
1a0033a4:	53554f4d 00000d45 5f425355 5f444948     MOUSE...USB_HID_
1a0033b4:	4259454b 4452414f 0000000d 5f425355     KEYBOARD....USB_
1a0033c4:	5f444948 454e4547 0d434952 00000000     HID_GENERIC.....
1a0033d4:	5f425355 5f434443 54524155 0000000d     USB_CDC_UART....
1a0033e4:	5f425355 5f43534d 56495244 00000d45     USB_MSC_DRIVE...
1a0033f4:	6f727245 79202c72 6d20756f 20747375     Error, you must 
1a003404:	20657375 61762061 2064696c 20425355     use a valid USB 
1a003414:	69766564 63206563 7373616c 0000000d     device class....

1a003424 <__sf_fake_stderr>:
	...

1a003444 <__sf_fake_stdin>:
	...

1a003464 <__sf_fake_stdout>:
	...

1a003484 <_global_impure_ptr>:
1a003484:	10000094                                ....
